gpasm-1.5.0 #1285 (Sep 12 2016) obj\Debug\gpi   7-19-2020  03:04:18         PAGE  1


LOC    OBJECT CODE    LINE  SOURCE TEXT
  VALUE

                      00001 ;--------------------------------------------------------
                      00002 ; File Created by SDCC : free open source ANSI-C Compiler
                      00003 ; Version 4.0.0 #11528 (MINGW64)
                      00004 ;--------------------------------------------------------
                      00005 ; PIC port for the 14-bit core
                      00006 ;--------------------------------------------------------
                      00007         .file   "gpio.c"
                      00008         list    p=16f877a
                      00009         radix dec
                      00010         include "p16f877a.inc"
                      00001         LIST
                      00002 
                      00003 ;==========================================================================
                      00004 ; Build date : Oct 21 2015
                      00005 ;  MPASM PIC16F877A processor include
                      00006 ; 
                      00007 ;  (c) Copyright 1999-2015 Microchip Technology, All rights reserved
                      00008 ;==========================================================================
                      00009 
                      00567         LIST
                      00011 ;--------------------------------------------------------
                      00012 ; external declarations
                      00013 ;--------------------------------------------------------
  0000                00014         extern  _TRISE
  0000                00015         extern  _TRISD
  0000                00016         extern  _TRISC
  0000                00017         extern  _TRISB
  0000                00018         extern  _TRISA
  0000                00019         extern  _PORTE
  0000                00020         extern  _PORTD
  0000                00021         extern  _PORTC
  0000                00022         extern  _PORTB
  0000                00023         extern  _PORTA
                      00024 
  0000                00025         extern PSAVE
  0000                00026         extern SSAVE
  0000                00027         extern WSAVE
  0000                00028         extern STK12
  0000                00029         extern STK11
  0000                00030         extern STK10
  0000                00031         extern STK09
  0000                00032         extern STK08
  0000                00033         extern STK07
  0000                00034         extern STK06
  0000                00035         extern STK05
  0000                00036         extern STK04
  0000                00037         extern STK03
  0000                00038         extern STK02
  0000                00039         extern STK01
  0000                00040         extern STK00
                      00041 ;--------------------------------------------------------
                      00042 ; global declarations
                      00043 ;--------------------------------------------------------
gpasm-1.5.0 #1285 (Sep 12 2016) obj\Debug\gpi   7-19-2020  03:04:18         PAGE  2


LOC    OBJECT CODE    LINE  SOURCE TEXT
  VALUE

  0000                00044         global  _GPIO_InitPortPin
  0000                00045         global  _GPIO_InitPort
  0000                00046         global  _GPIO_Update
  0000                00047         global  _GPIO_SetPortPinState
  0000                00048         global  _GPIO_SetPortState
  0000                00049         global  _GPIO_GetPortPinState
                      00050 
                      00051 ;--------------------------------------------------------
                      00052 ; global definitions
                      00053 ;--------------------------------------------------------
                      00054 ;--------------------------------------------------------
                      00055 ; absolute symbol definitions
                      00056 ;--------------------------------------------------------
                      00057 ;--------------------------------------------------------
                      00058 ; compiler-defined variables
                      00059 ;--------------------------------------------------------
                      00060 UDL_gpio_0      udata
0000                  00061 r0x1012 res     1
0001                  00062 r0x1013 res     1
0002                  00063 r0x1014 res     1
0003                  00064 r0x1015 res     1
0004                  00065 r0x1016 res     1
0005                  00066 r0x1017 res     1
0006                  00067 r0x1018 res     1
0007                  00068 r0x1019 res     1
0008                  00069 r0x1006 res     1
0009                  00070 r0x1007 res     1
000A                  00071 r0x1008 res     1
000B                  00072 r0x1009 res     1
000C                  00073 r0x100A res     1
000D                  00074 r0x100B res     1
000E                  00075 r0x100C res     1
000F                  00076 r0x100D res     1
0010                  00077 r0x100F res     1
0011                  00078 r0x100E res     1
0012                  00079 r0x1010 res     1
0013                  00080 r0x1011 res     1
0014                  00081 r0x1000 res     1
0015                  00082 r0x1001 res     1
0016                  00083 r0x1002 res     1
0017                  00084 r0x1003 res     1
0018                  00085 r0x1004 res     1
0019                  00086 r0x1005 res     1
                      00087 ;--------------------------------------------------------
                      00088 ; initialized data
                      00089 ;--------------------------------------------------------
                      00090 ;--------------------------------------------------------
                      00091 ; initialized absolute data
                      00092 ;--------------------------------------------------------
                      00093 ;--------------------------------------------------------
                      00094 ; overlayable items in internal ram 
                      00095 ;--------------------------------------------------------
                      00096 ;       udata_ovr
gpasm-1.5.0 #1285 (Sep 12 2016) obj\Debug\gpi   7-19-2020  03:04:18         PAGE  3


LOC    OBJECT CODE    LINE  SOURCE TEXT
  VALUE

                      00097 ;--------------------------------------------------------
                      00098 ; code
                      00099 ;--------------------------------------------------------
                      00100 code_gpio       code
                      00101 ;***
                      00102 ;  pBlock Stats: dbName = C
                      00103 ;***
                      00104 ;has an exit
                      00105 ;7 compiler assigned registers:
                      00106 ;   r0x1000
                      00107 ;   STK00
                      00108 ;   r0x1001
                      00109 ;   r0x1002
                      00110 ;   r0x1003
                      00111 ;   r0x1004
                      00112 ;   r0x1005
                      00113 ;; Starting pCode block
                      00114 ;;; /home/sdcc-builder/build/sdcc-build/orig/sdcc/src/pic14/gen.c:2358:resultRemat *{*
                      00115 ;;; /home/sdcc-builder/build/sdcc-build/orig/sdcc/src/pic14/gen.c:2802:genLabel *{*
                      00116 ;; ***  genLabel  2805
                      00117 ;;; /home/sdcc-builder/build/sdcc-build/orig/sdcc/src/pic14/gen.c:2358:resultRemat *{*
                      00118 ;;; /home/sdcc-builder/build/sdcc-build/orig/sdcc/src/pic14/gen.c:2382:genFunction *{*
                      00119 ;; ***  genFunction  2384 curr label offset=110previous max_key=14 
                      00120 S_gpio__GPIO_GetPortPinState    code
0000                  00121 _GPIO_GetPortPinState:
                      00122 ; 2 exit points
                      00123 ;;; /home/sdcc-builder/build/sdcc-build/orig/sdcc/src/pic14/gen.c:2358:resultRemat *{*
                      00124 ;;; /home/sdcc-builder/build/sdcc-build/orig/sdcc/src/pic14/gen.c:7642:genReceive *{*
                      00125 ;; ***  genReceive  7643
                      00126 ;;      708 register type nRegs=1
                      00127 ;;; /home/sdcc-builder/build/sdcc-build/orig/sdcc/src/pic14/gen.c:1929:assignResultValue *{*
                      00128 ;; ***  assignResultValue  1931
                      00129 ;;      line = 1933 result -=-, size=0, left AOP_REG=r0x105A, size=1, right -=-, size=0
                      00130 ;; >>> /home/sdcc-builder/build/sdcc-build/orig/sdcc/src/pic14/gen.c:1407:movwf
                      00131 ;;      1126 rIdx = r0x105A 
                      00132         .line   88; "gpio.c"    unsigned char GPIO_GetPortPinState(tPort port, unsigned char pin)
0000   0??? 0???      00133         BANKSEL r0x1000
0002   00??           00134         MOVWF   r0x1000
                      00135 ;;; /home/sdcc-builder/build/sdcc-build/orig/sdcc/src/pic14/gen.c:2358:resultRemat *{*
                      00136 ;;; /home/sdcc-builder/build/sdcc-build/orig/sdcc/src/pic14/gen.c:7642:genReceive *{*
                      00137 ;; ***  genReceive  7643
                      00138 ;;      708 register type nRegs=1
                      00139 ;;; /home/sdcc-builder/build/sdcc-build/orig/sdcc/src/pic14/gen.c:1929:assignResultValue *{*
                      00140 ;; ***  assignResultValue  1931
                      00141 ;;      line = 1933 result -=-, size=0, left AOP_REG=r0x105B, size=1, right -=-, size=0
                      00142 ;; >>> /home/sdcc-builder/build/sdcc-build/orig/sdcc/src/pic14/gen.c:1437:get_returnvalue
                      00143 ;; ***  popRegFromIdx,1059  , rIdx=0x7f
0003   08??           00144         MOVF    STK00,W
                      00145 ;; >>> /home/sdcc-builder/build/sdcc-build/orig/sdcc/src/pic14/gen.c:1407:movwf
                      00146 ;;      1126 rIdx = r0x105B 
0004   00??           00147         MOVWF   r0x1001
                      00148 ;;; /home/sdcc-builder/build/sdcc-build/orig/sdcc/src/pic14/gen.c:2358:resultRemat *{*
                      00149 ;;; /home/sdcc-builder/build/sdcc-build/orig/sdcc/src/pic14/gen.c:7192:genAssign *{*
gpasm-1.5.0 #1285 (Sep 12 2016) obj\Debug\gpi   7-19-2020  03:04:18         PAGE  4


LOC    OBJECT CODE    LINE  SOURCE TEXT
  VALUE

                      00150 ;; ***  genAssign  7193
                      00151 ;;      708 register type nRegs=1
                      00152 ;;      line = 7202 result AOP_REG=r0x105C, size=1, left -=-, size=0, right AOP_LIT=0x00, size=1
                      00153 ;; ***  genAssign  7286
                      00154 ;; >>> /home/sdcc-builder/build/sdcc-build/orig/sdcc/src/pic14/gen.c:7298:genAssign
                      00155 ;;      1126 rIdx = r0x105C 
                      00156         .line   90; "gpio.c"    unsigned char ret = 0;
0005   01??           00157         CLRF    r0x1002
                      00158 ;;; /home/sdcc-builder/build/sdcc-build/orig/sdcc/src/pic14/gen.c:2358:resultRemat *{*
                      00159 ;;; /home/sdcc-builder/build/sdcc-build/orig/sdcc/src/pic14/gen.c:3616:genCmpGt *{*
                      00160 ;; ***  genCmpGt  3617
                      00161 ;;      708 register type nRegs=1
                      00162 ;;; /home/sdcc-builder/build/sdcc-build/orig/sdcc/src/pic14/gen.c:3354:genCmp *{*
                      00163 ;;swapping arguments (AOP_TYPEs 1/2)
                      00164 ;;unsigned compare: left >= lit(0x5=5), size=1
                      00165 ;; >>> /home/sdcc-builder/build/sdcc-build/orig/sdcc/src/pic14/gen.c:3325:pic14_mov2w_regOrLit
                      00166         .line   92; "gpio.c"    switch(port)
0006   3005           00167         MOVLW   0x05
                      00168 ;; >>> /home/sdcc-builder/build/sdcc-build/orig/sdcc/src/pic14/gen.c:3492:genCmp
                      00169 ;;      1126 rIdx = r0x105A 
0007   02??           00170         SUBWF   r0x1000,W
                      00171 ;;; /home/sdcc-builder/build/sdcc-build/orig/sdcc/src/pic14/gen.c:3297:genSkipc *{*
                      00172 ;; >>> /home/sdcc-builder/build/sdcc-build/orig/sdcc/src/pic14/gen.c:3302:genSkipc
0008   1803           00173         BTFSC   STATUS,0
                      00174 ;; >>> /home/sdcc-builder/build/sdcc-build/orig/sdcc/src/pic14/gen.c:3306:genSkipc
                      00175 ;; ***  popGetLabel  key=6, label offset 128
0009   2???           00176         GOTO    _00234_DS_
                      00177 ;;genSkipc:3307: created from rifx:00000000047A57B0
                      00178 ;;; /home/sdcc-builder/build/sdcc-build/orig/sdcc/src/pic14/gen.c:2358:resultRemat *{*
                      00179 ;;; /home/sdcc-builder/build/sdcc-build/orig/sdcc/src/pic14/gen.c:2358:resultRemat *{*
                      00180 ;;; /home/sdcc-builder/build/sdcc-build/orig/sdcc/src/pic14/gen.c:7337:genJumpTab *{*
                      00181 ;; ***  genJumpTab  7338
                      00182 ;;      708 register type nRegs=1
                      00183 ;; >>> /home/sdcc-builder/build/sdcc-build/orig/sdcc/src/pic14/gen.c:7353:genJumpTab
                      00184 ;; ***  popGetLabel  key=14, label offset 128
000A   30??           00185         MOVLW   HIGH(_00242_DS_)
                      00186 ;; >>> /home/sdcc-builder/build/sdcc-build/orig/sdcc/src/pic14/gen.c:7354:genJumpTab
000B   1283 1303      00187         BANKSEL PCLATH
000D   008A           00188         MOVWF   PCLATH
                      00189 ;; >>> /home/sdcc-builder/build/sdcc-build/orig/sdcc/src/pic14/gen.c:7355:genJumpTab
                      00190 ;; ***  popGetLabel  key=14, label offset 128
000E   30??           00191         MOVLW   _00242_DS_
                      00192 ;; >>> /home/sdcc-builder/build/sdcc-build/orig/sdcc/src/pic14/gen.c:7356:genJumpTab
                      00193 ;;      1126 rIdx = r0x105A 
000F   0??? 0???      00194         BANKSEL r0x1000
0011   07??           00195         ADDWF   r0x1000,W
                      00196 ;; >>> /home/sdcc-builder/build/sdcc-build/orig/sdcc/src/pic14/gen.c:7357:genJumpTab
0012   1C03           00197         BTFSS   STATUS,0
0013   2???           00198         GOTO    _00001_DS_
                      00199 ;; >>> /home/sdcc-builder/build/sdcc-build/orig/sdcc/src/pic14/gen.c:7358:genJumpTab
0014   1283 1303      00200         BANKSEL PCLATH
0016   0A8A           00201         INCF    PCLATH,F
                      00202 ;; >>> /home/sdcc-builder/build/sdcc-build/orig/sdcc/src/pic14/gen.c:7359:genJumpTab
gpasm-1.5.0 #1285 (Sep 12 2016) obj\Debug\gpi   7-19-2020  03:04:18         PAGE  5


LOC    OBJECT CODE    LINE  SOURCE TEXT
  VALUE

0017                  00203 _00001_DS_:
0017   0082           00204         MOVWF   PCL
                      00205 ;; >>> /home/sdcc-builder/build/sdcc-build/orig/sdcc/src/pic14/gen.c:7368:genJumpTab
                      00206 ;; ***  popGetLabel  key=1, label offset 128
0018                  00207 _00242_DS_:
0018   2???           00208         GOTO    _00229_DS_
                      00209 ;; >>> /home/sdcc-builder/build/sdcc-build/orig/sdcc/src/pic14/gen.c:7368:genJumpTab
                      00210 ;; ***  popGetLabel  key=2, label offset 128
0019   2???           00211         GOTO    _00230_DS_
                      00212 ;; >>> /home/sdcc-builder/build/sdcc-build/orig/sdcc/src/pic14/gen.c:7368:genJumpTab
                      00213 ;; ***  popGetLabel  key=3, label offset 128
001A   2???           00214         GOTO    _00231_DS_
                      00215 ;; >>> /home/sdcc-builder/build/sdcc-build/orig/sdcc/src/pic14/gen.c:7368:genJumpTab
                      00216 ;; ***  popGetLabel  key=4, label offset 128
001B   2???           00217         GOTO    _00232_DS_
                      00218 ;; >>> /home/sdcc-builder/build/sdcc-build/orig/sdcc/src/pic14/gen.c:7368:genJumpTab
                      00219 ;; ***  popGetLabel  key=5, label offset 128
001C   2???           00220         GOTO    _00233_DS_
                      00221 ;;; /home/sdcc-builder/build/sdcc-build/orig/sdcc/src/pic14/gen.c:2358:resultRemat *{*
                      00222 ;;; /home/sdcc-builder/build/sdcc-build/orig/sdcc/src/pic14/gen.c:2802:genLabel *{*
                      00223 ;; ***  genLabel  2805
                      00224 ;;; /home/sdcc-builder/build/sdcc-build/orig/sdcc/src/pic14/gen.c:2358:resultRemat *{*
                      00225 ;;; /home/sdcc-builder/build/sdcc-build/orig/sdcc/src/pic14/gen.c:5667:genGenericShift *{*
                      00226 ;; ***  genGenericShift  5670
                      00227 ;;      708 register type nRegs=1
                      00228 ;;      708 register type nRegs=2
                      00229 ;; ***  mov2w  1395  offset=1
                      00230 ;; >>> /home/sdcc-builder/build/sdcc-build/orig/sdcc/src/pic14/gen.c:1398:mov2w
001D                  00231 _00229_DS_:
                      00232         .line   95; "gpio.c"    ret =  READ_REGISTER_PIN(PORTA, pin);
001D   3000           00233         MOVLW   0x00
                      00234 ;; >>> /home/sdcc-builder/build/sdcc-build/orig/sdcc/src/pic14/gen.c:1407:movwf
                      00235 ;;      1126 rIdx = r0x105D 
001E   0??? 0???      00236         BANKSEL r0x1003
0020   00??           00237         MOVWF   r0x1003
                      00238 ;; ***  mov2w  1395  offset=0
                      00239 ;; >>> /home/sdcc-builder/build/sdcc-build/orig/sdcc/src/pic14/gen.c:1398:mov2w
0021   3001           00240         MOVLW   0x01
                      00241 ;; >>> /home/sdcc-builder/build/sdcc-build/orig/sdcc/src/pic14/gen.c:1407:movwf
                      00242 ;;      1126 rIdx = r0x105A 
0022   00??           00243         MOVWF   r0x1000
                      00244 ;; ***  addSign  1087
                      00245 ;;; /home/sdcc-builder/build/sdcc-build/orig/sdcc/src/pic14/genarith.c:1088:addSign *{*
                      00246 ;; ***  mov2w  1395  offset=0
                      00247 ;; >>> /home/sdcc-builder/build/sdcc-build/orig/sdcc/src/pic14/gen.c:1400:mov2w
                      00248 ;;      1126 rIdx = r0x105B 
0023   08??           00249         MOVF    r0x1001,W
                      00250 ;; >>> /home/sdcc-builder/build/sdcc-build/orig/sdcc/src/pic14/gen.c:5741:genGenericShift
0024   3C00           00251         SUBLW   0x00
                      00252 ;; >>> /home/sdcc-builder/build/sdcc-build/orig/sdcc/src/pic14/gen.c:5743:genGenericShift
0025   1903           00253         BTFSC   STATUS,2
                      00254 ;; >>> /home/sdcc-builder/build/sdcc-build/orig/sdcc/src/pic14/gen.c:5744:genGenericShift
                      00255 ;; ***  popGetLabel  key=16, label offset 128
gpasm-1.5.0 #1285 (Sep 12 2016) obj\Debug\gpi   7-19-2020  03:04:18         PAGE  6


LOC    OBJECT CODE    LINE  SOURCE TEXT
  VALUE

0026   2???           00256         GOTO    _00244_DS_
                      00257 ;;; /home/sdcc-builder/build/sdcc-build/orig/sdcc/src/pic14/gen.c:5618:genMultiAsm *{*
                      00258 ;; ***  genMultiAsm  5619
                      00259 ;; >>> /home/sdcc-builder/build/sdcc-build/orig/sdcc/src/pic14/gen.c:5636:genMultiAsm
                      00260 ;;      1126 rIdx = r0x105A 
0027                  00261 _00243_DS_:
0027   0??? 0???      00262         BANKSEL r0x1000
0029   0D??           00263         RLF     r0x1000,F
                      00264 ;; >>> /home/sdcc-builder/build/sdcc-build/orig/sdcc/src/pic14/gen.c:5636:genMultiAsm
                      00265 ;;      1126 rIdx = r0x105D 
002A   0D??           00266         RLF     r0x1003,F
                      00267 ;; >>> /home/sdcc-builder/build/sdcc-build/orig/sdcc/src/pic14/gen.c:5750:genGenericShift
002B   3E01           00268         ADDLW   0x01
                      00269 ;; >>> /home/sdcc-builder/build/sdcc-build/orig/sdcc/src/pic14/gen.c:5751:genGenericShift
002C   1C03           00270         BTFSS   STATUS,0
                      00271 ;; >>> /home/sdcc-builder/build/sdcc-build/orig/sdcc/src/pic14/gen.c:5752:genGenericShift
                      00272 ;; ***  popGetLabel  key=15, label offset 128
002D   2???           00273         GOTO    _00243_DS_
                      00274 ;;; /home/sdcc-builder/build/sdcc-build/orig/sdcc/src/pic14/gen.c:2358:resultRemat *{*
                      00275 ;;; /home/sdcc-builder/build/sdcc-build/orig/sdcc/src/pic14/gen.c:7386:genCast *{*
                      00276 ;; ***  genCast  7387
                      00277 ;; ***  aopForSym 324
                      00278 ;;      336 sym->rname = _PORTA, size = 1
                      00279 ;;      708 register type nRegs=2
                      00280 ;;      line = 7395 result AOP_REG=r0x105E, size=2, left -=-, size=0, right AOP_DIR=_PORTA, size=1
                      00281 ;; >>> /home/sdcc-builder/build/sdcc-build/orig/sdcc/src/pic14/gen.c:7582:genCast
                      00282 ;;      1027
                      00283 ;;      1045  _PORTA   offset=0
002E                  00284 _00244_DS_:
002E   0??? 0???      00285         BANKSEL _PORTA
0030   08??           00286         MOVF    _PORTA,W
                      00287 ;; >>> /home/sdcc-builder/build/sdcc-build/orig/sdcc/src/pic14/gen.c:7583:genCast
                      00288 ;;      1126 rIdx = r0x105E 
0031   0??? 0???      00289         BANKSEL r0x1004
0033   00??           00290         MOVWF   r0x1004
                      00291 ;; ***  addSign  1087
                      00292 ;;; /home/sdcc-builder/build/sdcc-build/orig/sdcc/src/pic14/genarith.c:1088:addSign *{*
                      00293 ;; >>> /home/sdcc-builder/build/sdcc-build/orig/sdcc/src/pic14/genarith.c:1107:addSign
                      00294 ;;      1126 rIdx = r0x105F 
0034   01??           00295         CLRF    r0x1005
                      00296 ;;; /home/sdcc-builder/build/sdcc-build/orig/sdcc/src/pic14/gen.c:2358:resultRemat *{*
                      00297 ;;; /home/sdcc-builder/build/sdcc-build/orig/sdcc/src/pic14/gen.c:4023:genAnd *{*
                      00298 ;; ***  genAnd  4024
                      00299 ;;      708 register type nRegs=2
                      00300 ;;      708 register type nRegs=2
                      00301 ;;      708 register type nRegs=2
                      00302 ;;      line = 4059 result AOP_REG=r0x105A, size=2, left AOP_REG=r0x105A, size=2, right AOP_REG=r0x105E,
                             size=2
                      00303 ;; >>> /home/sdcc-builder/build/sdcc-build/orig/sdcc/src/pic14/gen.c:4241:genAnd
                      00304 ;;      1126 rIdx = r0x105E 
0035   08??           00305         MOVF    r0x1004,W
                      00306 ;; >>> /home/sdcc-builder/build/sdcc-build/orig/sdcc/src/pic14/gen.c:4242:genAnd
                      00307 ;;      1126 rIdx = r0x105A 
gpasm-1.5.0 #1285 (Sep 12 2016) obj\Debug\gpi   7-19-2020  03:04:18         PAGE  7


LOC    OBJECT CODE    LINE  SOURCE TEXT
  VALUE

0036   05??           00308         ANDWF   r0x1000,F
                      00309 ;; >>> /home/sdcc-builder/build/sdcc-build/orig/sdcc/src/pic14/gen.c:4241:genAnd
                      00310 ;;      1126 rIdx = r0x105F 
0037   3000           00311         MOVLW   0x00
                      00312 ;; >>> /home/sdcc-builder/build/sdcc-build/orig/sdcc/src/pic14/gen.c:4242:genAnd
                      00313 ;;      1126 rIdx = r0x105D 
0038   05??           00314         ANDWF   r0x1003,F
                      00315 ;;; /home/sdcc-builder/build/sdcc-build/orig/sdcc/src/pic14/gen.c:2358:resultRemat *{*
                      00316 ;;; /home/sdcc-builder/build/sdcc-build/orig/sdcc/src/pic14/gen.c:5667:genGenericShift *{*
                      00317 ;; ***  genGenericShift  5670
                      00318 ;;      708 register type nRegs=1
                      00319 ;;      708 register type nRegs=2
                      00320 ;;      708 register type nRegs=2
                      00321 ;; ***  mov2w  1395  offset=1
                      00322 ;; >>> /home/sdcc-builder/build/sdcc-build/orig/sdcc/src/pic14/gen.c:1400:mov2w
                      00323 ;;      1126 rIdx = r0x105D 
0039   08??           00324         MOVF    r0x1003,W
                      00325 ;; >>> /home/sdcc-builder/build/sdcc-build/orig/sdcc/src/pic14/gen.c:1407:movwf
                      00326 ;;      1126 rIdx = r0x105F 
003A   00??           00327         MOVWF   r0x1005
                      00328 ;; ***  mov2w  1395  offset=0
                      00329 ;; >>> /home/sdcc-builder/build/sdcc-build/orig/sdcc/src/pic14/gen.c:1400:mov2w
                      00330 ;;      1126 rIdx = r0x105A 
003B   08??           00331         MOVF    r0x1000,W
                      00332 ;; >>> /home/sdcc-builder/build/sdcc-build/orig/sdcc/src/pic14/gen.c:1407:movwf
                      00333 ;;      1126 rIdx = r0x105E 
003C   00??           00334         MOVWF   r0x1004
                      00335 ;; ***  addSign  1087
                      00336 ;;; /home/sdcc-builder/build/sdcc-build/orig/sdcc/src/pic14/genarith.c:1088:addSign *{*
                      00337 ;; ***  mov2w  1395  offset=0
                      00338 ;; >>> /home/sdcc-builder/build/sdcc-build/orig/sdcc/src/pic14/gen.c:1400:mov2w
                      00339 ;;      1126 rIdx = r0x105B 
003D   08??           00340         MOVF    r0x1001,W
                      00341 ;; >>> /home/sdcc-builder/build/sdcc-build/orig/sdcc/src/pic14/gen.c:5741:genGenericShift
003E   3C00           00342         SUBLW   0x00
                      00343 ;; >>> /home/sdcc-builder/build/sdcc-build/orig/sdcc/src/pic14/gen.c:5743:genGenericShift
003F   1903           00344         BTFSC   STATUS,2
                      00345 ;; >>> /home/sdcc-builder/build/sdcc-build/orig/sdcc/src/pic14/gen.c:5744:genGenericShift
                      00346 ;; ***  popGetLabel  key=18, label offset 128
0040   2???           00347         GOTO    _00246_DS_
                      00348 ;;; /home/sdcc-builder/build/sdcc-build/orig/sdcc/src/pic14/gen.c:5649:loadSignToC *{*
                      00349 ;; >>> /home/sdcc-builder/build/sdcc-build/orig/sdcc/src/pic14/gen.c:5652:loadSignToC
0041                  00350 _00245_DS_:
0041   1003           00351         BCF     STATUS,0
                      00352 ;; >>> /home/sdcc-builder/build/sdcc-build/orig/sdcc/src/pic14/gen.c:5653:loadSignToC
0042   0??? 0???      00353         BANKSEL r0x1005
0044   1B??           00354         BTFSC   r0x1005,7
                      00355 ;; >>> /home/sdcc-builder/build/sdcc-build/orig/sdcc/src/pic14/gen.c:5654:loadSignToC
0045   1403           00356         BSF     STATUS,0
                      00357 ;;; /home/sdcc-builder/build/sdcc-build/orig/sdcc/src/pic14/gen.c:5618:genMultiAsm *{*
                      00358 ;; ***  genMultiAsm  5619
                      00359 ;; >>> /home/sdcc-builder/build/sdcc-build/orig/sdcc/src/pic14/gen.c:5636:genMultiAsm
                      00360 ;;      1126 rIdx = r0x105F 
gpasm-1.5.0 #1285 (Sep 12 2016) obj\Debug\gpi   7-19-2020  03:04:18         PAGE  8


LOC    OBJECT CODE    LINE  SOURCE TEXT
  VALUE

0046   0C??           00361         RRF     r0x1005,F
                      00362 ;; >>> /home/sdcc-builder/build/sdcc-build/orig/sdcc/src/pic14/gen.c:5636:genMultiAsm
                      00363 ;;      1126 rIdx = r0x105E 
0047   0C??           00364         RRF     r0x1004,F
                      00365 ;; >>> /home/sdcc-builder/build/sdcc-build/orig/sdcc/src/pic14/gen.c:5750:genGenericShift
0048   3E01           00366         ADDLW   0x01
                      00367 ;; >>> /home/sdcc-builder/build/sdcc-build/orig/sdcc/src/pic14/gen.c:5751:genGenericShift
0049   1C03           00368         BTFSS   STATUS,0
                      00369 ;; >>> /home/sdcc-builder/build/sdcc-build/orig/sdcc/src/pic14/gen.c:5752:genGenericShift
                      00370 ;; ***  popGetLabel  key=17, label offset 128
004A   2???           00371         GOTO    _00245_DS_
                      00372 ;;; /home/sdcc-builder/build/sdcc-build/orig/sdcc/src/pic14/gen.c:2358:resultRemat *{*
                      00373 ;;; /home/sdcc-builder/build/sdcc-build/orig/sdcc/src/pic14/gen.c:7386:genCast *{*
                      00374 ;; ***  genCast  7387
                      00375 ;;      708 register type nRegs=2
                      00376 ;;      708 register type nRegs=1
                      00377 ;;      line = 7395 result AOP_REG=r0x105C, size=1, left -=-, size=0, right AOP_REG=r0x105E, size=2
                      00378 ;; ***  genCast  7537
                      00379 ;; >>> /home/sdcc-builder/build/sdcc-build/orig/sdcc/src/pic14/gen.c:7561:genCast
                      00380 ;;      1126 rIdx = r0x105E 
004B                  00381 _00246_DS_:
004B   0??? 0???      00382         BANKSEL r0x1004
004D   08??           00383         MOVF    r0x1004,W
                      00384 ;; >>> /home/sdcc-builder/build/sdcc-build/orig/sdcc/src/pic14/gen.c:7562:genCast
                      00385 ;;      1126 rIdx = r0x105C 
004E   00??           00386         MOVWF   r0x1002
                      00387 ;;; /home/sdcc-builder/build/sdcc-build/orig/sdcc/src/pic14/gen.c:2358:resultRemat *{*
                      00388 ;;; /home/sdcc-builder/build/sdcc-build/orig/sdcc/src/pic14/gen.c:2820:genGoto *{*
                      00389 ;; >>> /home/sdcc-builder/build/sdcc-build/orig/sdcc/src/pic14/gen.c:2822:genGoto
                      00390 ;; ***  popGetLabel  key=6, label offset 128
                      00391         .line   96; "gpio.c"    break;
004F   2???           00392         GOTO    _00234_DS_
                      00393 ;;; /home/sdcc-builder/build/sdcc-build/orig/sdcc/src/pic14/gen.c:2358:resultRemat *{*
                      00394 ;;; /home/sdcc-builder/build/sdcc-build/orig/sdcc/src/pic14/gen.c:2802:genLabel *{*
                      00395 ;; ***  genLabel  2805
                      00396 ;;; /home/sdcc-builder/build/sdcc-build/orig/sdcc/src/pic14/gen.c:2358:resultRemat *{*
                      00397 ;;; /home/sdcc-builder/build/sdcc-build/orig/sdcc/src/pic14/gen.c:5667:genGenericShift *{*
                      00398 ;; ***  genGenericShift  5670
                      00399 ;;      708 register type nRegs=1
                      00400 ;;      708 register type nRegs=2
                      00401 ;; ***  mov2w  1395  offset=1
                      00402 ;; >>> /home/sdcc-builder/build/sdcc-build/orig/sdcc/src/pic14/gen.c:1398:mov2w
0050                  00403 _00230_DS_:
                      00404         .line   99; "gpio.c"    ret =  READ_REGISTER_PIN(PORTB, pin);
0050   3000           00405         MOVLW   0x00
                      00406 ;; >>> /home/sdcc-builder/build/sdcc-build/orig/sdcc/src/pic14/gen.c:1407:movwf
                      00407 ;;      1126 rIdx = r0x105D 
0051   0??? 0???      00408         BANKSEL r0x1003
0053   00??           00409         MOVWF   r0x1003
                      00410 ;; ***  mov2w  1395  offset=0
                      00411 ;; >>> /home/sdcc-builder/build/sdcc-build/orig/sdcc/src/pic14/gen.c:1398:mov2w
0054   3001           00412         MOVLW   0x01
                      00413 ;; >>> /home/sdcc-builder/build/sdcc-build/orig/sdcc/src/pic14/gen.c:1407:movwf
gpasm-1.5.0 #1285 (Sep 12 2016) obj\Debug\gpi   7-19-2020  03:04:18         PAGE  9


LOC    OBJECT CODE    LINE  SOURCE TEXT
  VALUE

                      00414 ;;      1126 rIdx = r0x105A 
0055   00??           00415         MOVWF   r0x1000
                      00416 ;; ***  addSign  1087
                      00417 ;;; /home/sdcc-builder/build/sdcc-build/orig/sdcc/src/pic14/genarith.c:1088:addSign *{*
                      00418 ;; ***  mov2w  1395  offset=0
                      00419 ;; >>> /home/sdcc-builder/build/sdcc-build/orig/sdcc/src/pic14/gen.c:1400:mov2w
                      00420 ;;      1126 rIdx = r0x105B 
0056   08??           00421         MOVF    r0x1001,W
                      00422 ;; >>> /home/sdcc-builder/build/sdcc-build/orig/sdcc/src/pic14/gen.c:5741:genGenericShift
0057   3C00           00423         SUBLW   0x00
                      00424 ;; >>> /home/sdcc-builder/build/sdcc-build/orig/sdcc/src/pic14/gen.c:5743:genGenericShift
0058   1903           00425         BTFSC   STATUS,2
                      00426 ;; >>> /home/sdcc-builder/build/sdcc-build/orig/sdcc/src/pic14/gen.c:5744:genGenericShift
                      00427 ;; ***  popGetLabel  key=20, label offset 128
0059   2???           00428         GOTO    _00248_DS_
                      00429 ;;; /home/sdcc-builder/build/sdcc-build/orig/sdcc/src/pic14/gen.c:5618:genMultiAsm *{*
                      00430 ;; ***  genMultiAsm  5619
                      00431 ;; >>> /home/sdcc-builder/build/sdcc-build/orig/sdcc/src/pic14/gen.c:5636:genMultiAsm
                      00432 ;;      1126 rIdx = r0x105A 
005A                  00433 _00247_DS_:
005A   0??? 0???      00434         BANKSEL r0x1000
005C   0D??           00435         RLF     r0x1000,F
                      00436 ;; >>> /home/sdcc-builder/build/sdcc-build/orig/sdcc/src/pic14/gen.c:5636:genMultiAsm
                      00437 ;;      1126 rIdx = r0x105D 
005D   0D??           00438         RLF     r0x1003,F
                      00439 ;; >>> /home/sdcc-builder/build/sdcc-build/orig/sdcc/src/pic14/gen.c:5750:genGenericShift
005E   3E01           00440         ADDLW   0x01
                      00441 ;; >>> /home/sdcc-builder/build/sdcc-build/orig/sdcc/src/pic14/gen.c:5751:genGenericShift
005F   1C03           00442         BTFSS   STATUS,0
                      00443 ;; >>> /home/sdcc-builder/build/sdcc-build/orig/sdcc/src/pic14/gen.c:5752:genGenericShift
                      00444 ;; ***  popGetLabel  key=19, label offset 128
0060   2???           00445         GOTO    _00247_DS_
                      00446 ;;; /home/sdcc-builder/build/sdcc-build/orig/sdcc/src/pic14/gen.c:2358:resultRemat *{*
                      00447 ;;; /home/sdcc-builder/build/sdcc-build/orig/sdcc/src/pic14/gen.c:7386:genCast *{*
                      00448 ;; ***  genCast  7387
                      00449 ;; ***  aopForSym 324
                      00450 ;;      336 sym->rname = _PORTB, size = 1
                      00451 ;;      708 register type nRegs=2
                      00452 ;;      line = 7395 result AOP_REG=r0x105E, size=2, left -=-, size=0, right AOP_DIR=_PORTB, size=1
                      00453 ;; >>> /home/sdcc-builder/build/sdcc-build/orig/sdcc/src/pic14/gen.c:7582:genCast
                      00454 ;;      1027
                      00455 ;;      1045  _PORTB   offset=0
0061                  00456 _00248_DS_:
0061   0??? 0???      00457         BANKSEL _PORTB
0063   08??           00458         MOVF    _PORTB,W
                      00459 ;; >>> /home/sdcc-builder/build/sdcc-build/orig/sdcc/src/pic14/gen.c:7583:genCast
                      00460 ;;      1126 rIdx = r0x105E 
0064   0??? 0???      00461         BANKSEL r0x1004
0066   00??           00462         MOVWF   r0x1004
                      00463 ;; ***  addSign  1087
                      00464 ;;; /home/sdcc-builder/build/sdcc-build/orig/sdcc/src/pic14/genarith.c:1088:addSign *{*
                      00465 ;; >>> /home/sdcc-builder/build/sdcc-build/orig/sdcc/src/pic14/genarith.c:1107:addSign
                      00466 ;;      1126 rIdx = r0x105F 
gpasm-1.5.0 #1285 (Sep 12 2016) obj\Debug\gpi   7-19-2020  03:04:18         PAGE 10


LOC    OBJECT CODE    LINE  SOURCE TEXT
  VALUE

0067   01??           00467         CLRF    r0x1005
                      00468 ;;; /home/sdcc-builder/build/sdcc-build/orig/sdcc/src/pic14/gen.c:2358:resultRemat *{*
                      00469 ;;; /home/sdcc-builder/build/sdcc-build/orig/sdcc/src/pic14/gen.c:4023:genAnd *{*
                      00470 ;; ***  genAnd  4024
                      00471 ;;      708 register type nRegs=2
                      00472 ;;      708 register type nRegs=2
                      00473 ;;      708 register type nRegs=2
                      00474 ;;      line = 4059 result AOP_REG=r0x105A, size=2, left AOP_REG=r0x105A, size=2, right AOP_REG=r0x105E,
                             size=2
                      00475 ;; >>> /home/sdcc-builder/build/sdcc-build/orig/sdcc/src/pic14/gen.c:4241:genAnd
                      00476 ;;      1126 rIdx = r0x105E 
0068   08??           00477         MOVF    r0x1004,W
                      00478 ;; >>> /home/sdcc-builder/build/sdcc-build/orig/sdcc/src/pic14/gen.c:4242:genAnd
                      00479 ;;      1126 rIdx = r0x105A 
0069   05??           00480         ANDWF   r0x1000,F
                      00481 ;; >>> /home/sdcc-builder/build/sdcc-build/orig/sdcc/src/pic14/gen.c:4241:genAnd
                      00482 ;;      1126 rIdx = r0x105F 
006A   3000           00483         MOVLW   0x00
                      00484 ;; >>> /home/sdcc-builder/build/sdcc-build/orig/sdcc/src/pic14/gen.c:4242:genAnd
                      00485 ;;      1126 rIdx = r0x105D 
006B   05??           00486         ANDWF   r0x1003,F
                      00487 ;;; /home/sdcc-builder/build/sdcc-build/orig/sdcc/src/pic14/gen.c:2358:resultRemat *{*
                      00488 ;;; /home/sdcc-builder/build/sdcc-build/orig/sdcc/src/pic14/gen.c:5667:genGenericShift *{*
                      00489 ;; ***  genGenericShift  5670
                      00490 ;;      708 register type nRegs=1
                      00491 ;;      708 register type nRegs=2
                      00492 ;;      708 register type nRegs=2
                      00493 ;; ***  mov2w  1395  offset=1
                      00494 ;; >>> /home/sdcc-builder/build/sdcc-build/orig/sdcc/src/pic14/gen.c:1400:mov2w
                      00495 ;;      1126 rIdx = r0x105D 
006C   08??           00496         MOVF    r0x1003,W
                      00497 ;; >>> /home/sdcc-builder/build/sdcc-build/orig/sdcc/src/pic14/gen.c:1407:movwf
                      00498 ;;      1126 rIdx = r0x105F 
006D   00??           00499         MOVWF   r0x1005
                      00500 ;; ***  mov2w  1395  offset=0
                      00501 ;; >>> /home/sdcc-builder/build/sdcc-build/orig/sdcc/src/pic14/gen.c:1400:mov2w
                      00502 ;;      1126 rIdx = r0x105A 
006E   08??           00503         MOVF    r0x1000,W
                      00504 ;; >>> /home/sdcc-builder/build/sdcc-build/orig/sdcc/src/pic14/gen.c:1407:movwf
                      00505 ;;      1126 rIdx = r0x105E 
006F   00??           00506         MOVWF   r0x1004
                      00507 ;; ***  addSign  1087
                      00508 ;;; /home/sdcc-builder/build/sdcc-build/orig/sdcc/src/pic14/genarith.c:1088:addSign *{*
                      00509 ;; ***  mov2w  1395  offset=0
                      00510 ;; >>> /home/sdcc-builder/build/sdcc-build/orig/sdcc/src/pic14/gen.c:1400:mov2w
                      00511 ;;      1126 rIdx = r0x105B 
0070   08??           00512         MOVF    r0x1001,W
                      00513 ;; >>> /home/sdcc-builder/build/sdcc-build/orig/sdcc/src/pic14/gen.c:5741:genGenericShift
0071   3C00           00514         SUBLW   0x00
                      00515 ;; >>> /home/sdcc-builder/build/sdcc-build/orig/sdcc/src/pic14/gen.c:5743:genGenericShift
0072   1903           00516         BTFSC   STATUS,2
                      00517 ;; >>> /home/sdcc-builder/build/sdcc-build/orig/sdcc/src/pic14/gen.c:5744:genGenericShift
                      00518 ;; ***  popGetLabel  key=22, label offset 128
gpasm-1.5.0 #1285 (Sep 12 2016) obj\Debug\gpi   7-19-2020  03:04:18         PAGE 11


LOC    OBJECT CODE    LINE  SOURCE TEXT
  VALUE

0073   2???           00519         GOTO    _00250_DS_
                      00520 ;;; /home/sdcc-builder/build/sdcc-build/orig/sdcc/src/pic14/gen.c:5649:loadSignToC *{*
                      00521 ;; >>> /home/sdcc-builder/build/sdcc-build/orig/sdcc/src/pic14/gen.c:5652:loadSignToC
0074                  00522 _00249_DS_:
0074   1003           00523         BCF     STATUS,0
                      00524 ;; >>> /home/sdcc-builder/build/sdcc-build/orig/sdcc/src/pic14/gen.c:5653:loadSignToC
0075   0??? 0???      00525         BANKSEL r0x1005
0077   1B??           00526         BTFSC   r0x1005,7
                      00527 ;; >>> /home/sdcc-builder/build/sdcc-build/orig/sdcc/src/pic14/gen.c:5654:loadSignToC
0078   1403           00528         BSF     STATUS,0
                      00529 ;;; /home/sdcc-builder/build/sdcc-build/orig/sdcc/src/pic14/gen.c:5618:genMultiAsm *{*
                      00530 ;; ***  genMultiAsm  5619
                      00531 ;; >>> /home/sdcc-builder/build/sdcc-build/orig/sdcc/src/pic14/gen.c:5636:genMultiAsm
                      00532 ;;      1126 rIdx = r0x105F 
0079   0C??           00533         RRF     r0x1005,F
                      00534 ;; >>> /home/sdcc-builder/build/sdcc-build/orig/sdcc/src/pic14/gen.c:5636:genMultiAsm
                      00535 ;;      1126 rIdx = r0x105E 
007A   0C??           00536         RRF     r0x1004,F
                      00537 ;; >>> /home/sdcc-builder/build/sdcc-build/orig/sdcc/src/pic14/gen.c:5750:genGenericShift
007B   3E01           00538         ADDLW   0x01
                      00539 ;; >>> /home/sdcc-builder/build/sdcc-build/orig/sdcc/src/pic14/gen.c:5751:genGenericShift
007C   1C03           00540         BTFSS   STATUS,0
                      00541 ;; >>> /home/sdcc-builder/build/sdcc-build/orig/sdcc/src/pic14/gen.c:5752:genGenericShift
                      00542 ;; ***  popGetLabel  key=21, label offset 128
007D   2???           00543         GOTO    _00249_DS_
                      00544 ;;; /home/sdcc-builder/build/sdcc-build/orig/sdcc/src/pic14/gen.c:2358:resultRemat *{*
                      00545 ;;; /home/sdcc-builder/build/sdcc-build/orig/sdcc/src/pic14/gen.c:7386:genCast *{*
                      00546 ;; ***  genCast  7387
                      00547 ;;      708 register type nRegs=2
                      00548 ;;      708 register type nRegs=1
                      00549 ;;      line = 7395 result AOP_REG=r0x105C, size=1, left -=-, size=0, right AOP_REG=r0x105E, size=2
                      00550 ;; ***  genCast  7537
                      00551 ;; >>> /home/sdcc-builder/build/sdcc-build/orig/sdcc/src/pic14/gen.c:7561:genCast
                      00552 ;;      1126 rIdx = r0x105E 
007E                  00553 _00250_DS_:
007E   0??? 0???      00554         BANKSEL r0x1004
0080   08??           00555         MOVF    r0x1004,W
                      00556 ;; >>> /home/sdcc-builder/build/sdcc-build/orig/sdcc/src/pic14/gen.c:7562:genCast
                      00557 ;;      1126 rIdx = r0x105C 
0081   00??           00558         MOVWF   r0x1002
                      00559 ;;; /home/sdcc-builder/build/sdcc-build/orig/sdcc/src/pic14/gen.c:2358:resultRemat *{*
                      00560 ;;; /home/sdcc-builder/build/sdcc-build/orig/sdcc/src/pic14/gen.c:2820:genGoto *{*
                      00561 ;; >>> /home/sdcc-builder/build/sdcc-build/orig/sdcc/src/pic14/gen.c:2822:genGoto
                      00562 ;; ***  popGetLabel  key=6, label offset 128
                      00563         .line   100; "gpio.c"   break;
0082   2???           00564         GOTO    _00234_DS_
                      00565 ;;; /home/sdcc-builder/build/sdcc-build/orig/sdcc/src/pic14/gen.c:2358:resultRemat *{*
                      00566 ;;; /home/sdcc-builder/build/sdcc-build/orig/sdcc/src/pic14/gen.c:2802:genLabel *{*
                      00567 ;; ***  genLabel  2805
                      00568 ;;; /home/sdcc-builder/build/sdcc-build/orig/sdcc/src/pic14/gen.c:2358:resultRemat *{*
                      00569 ;;; /home/sdcc-builder/build/sdcc-build/orig/sdcc/src/pic14/gen.c:5667:genGenericShift *{*
                      00570 ;; ***  genGenericShift  5670
                      00571 ;;      708 register type nRegs=1
gpasm-1.5.0 #1285 (Sep 12 2016) obj\Debug\gpi   7-19-2020  03:04:18         PAGE 12


LOC    OBJECT CODE    LINE  SOURCE TEXT
  VALUE

                      00572 ;;      708 register type nRegs=2
                      00573 ;; ***  mov2w  1395  offset=1
                      00574 ;; >>> /home/sdcc-builder/build/sdcc-build/orig/sdcc/src/pic14/gen.c:1398:mov2w
0083                  00575 _00231_DS_:
                      00576         .line   103; "gpio.c"   ret =  READ_REGISTER_PIN(PORTC, pin);
0083   3000           00577         MOVLW   0x00
                      00578 ;; >>> /home/sdcc-builder/build/sdcc-build/orig/sdcc/src/pic14/gen.c:1407:movwf
                      00579 ;;      1126 rIdx = r0x105D 
0084   0??? 0???      00580         BANKSEL r0x1003
0086   00??           00581         MOVWF   r0x1003
                      00582 ;; ***  mov2w  1395  offset=0
                      00583 ;; >>> /home/sdcc-builder/build/sdcc-build/orig/sdcc/src/pic14/gen.c:1398:mov2w
0087   3001           00584         MOVLW   0x01
                      00585 ;; >>> /home/sdcc-builder/build/sdcc-build/orig/sdcc/src/pic14/gen.c:1407:movwf
                      00586 ;;      1126 rIdx = r0x105A 
0088   00??           00587         MOVWF   r0x1000
                      00588 ;; ***  addSign  1087
                      00589 ;;; /home/sdcc-builder/build/sdcc-build/orig/sdcc/src/pic14/genarith.c:1088:addSign *{*
                      00590 ;; ***  mov2w  1395  offset=0
                      00591 ;; >>> /home/sdcc-builder/build/sdcc-build/orig/sdcc/src/pic14/gen.c:1400:mov2w
                      00592 ;;      1126 rIdx = r0x105B 
0089   08??           00593         MOVF    r0x1001,W
                      00594 ;; >>> /home/sdcc-builder/build/sdcc-build/orig/sdcc/src/pic14/gen.c:5741:genGenericShift
008A   3C00           00595         SUBLW   0x00
                      00596 ;; >>> /home/sdcc-builder/build/sdcc-build/orig/sdcc/src/pic14/gen.c:5743:genGenericShift
008B   1903           00597         BTFSC   STATUS,2
                      00598 ;; >>> /home/sdcc-builder/build/sdcc-build/orig/sdcc/src/pic14/gen.c:5744:genGenericShift
                      00599 ;; ***  popGetLabel  key=24, label offset 128
008C   2???           00600         GOTO    _00252_DS_
                      00601 ;;; /home/sdcc-builder/build/sdcc-build/orig/sdcc/src/pic14/gen.c:5618:genMultiAsm *{*
                      00602 ;; ***  genMultiAsm  5619
                      00603 ;; >>> /home/sdcc-builder/build/sdcc-build/orig/sdcc/src/pic14/gen.c:5636:genMultiAsm
                      00604 ;;      1126 rIdx = r0x105A 
008D                  00605 _00251_DS_:
008D   0??? 0???      00606         BANKSEL r0x1000
008F   0D??           00607         RLF     r0x1000,F
                      00608 ;; >>> /home/sdcc-builder/build/sdcc-build/orig/sdcc/src/pic14/gen.c:5636:genMultiAsm
                      00609 ;;      1126 rIdx = r0x105D 
0090   0D??           00610         RLF     r0x1003,F
                      00611 ;; >>> /home/sdcc-builder/build/sdcc-build/orig/sdcc/src/pic14/gen.c:5750:genGenericShift
0091   3E01           00612         ADDLW   0x01
                      00613 ;; >>> /home/sdcc-builder/build/sdcc-build/orig/sdcc/src/pic14/gen.c:5751:genGenericShift
0092   1C03           00614         BTFSS   STATUS,0
                      00615 ;; >>> /home/sdcc-builder/build/sdcc-build/orig/sdcc/src/pic14/gen.c:5752:genGenericShift
                      00616 ;; ***  popGetLabel  key=23, label offset 128
0093   2???           00617         GOTO    _00251_DS_
                      00618 ;;; /home/sdcc-builder/build/sdcc-build/orig/sdcc/src/pic14/gen.c:2358:resultRemat *{*
                      00619 ;;; /home/sdcc-builder/build/sdcc-build/orig/sdcc/src/pic14/gen.c:7386:genCast *{*
                      00620 ;; ***  genCast  7387
                      00621 ;; ***  aopForSym 324
                      00622 ;;      336 sym->rname = _PORTC, size = 1
                      00623 ;;      708 register type nRegs=2
                      00624 ;;      line = 7395 result AOP_REG=r0x105E, size=2, left -=-, size=0, right AOP_DIR=_PORTC, size=1
gpasm-1.5.0 #1285 (Sep 12 2016) obj\Debug\gpi   7-19-2020  03:04:18         PAGE 13


LOC    OBJECT CODE    LINE  SOURCE TEXT
  VALUE

                      00625 ;; >>> /home/sdcc-builder/build/sdcc-build/orig/sdcc/src/pic14/gen.c:7582:genCast
                      00626 ;;      1027
                      00627 ;;      1045  _PORTC   offset=0
0094                  00628 _00252_DS_:
0094   0??? 0???      00629         BANKSEL _PORTC
0096   08??           00630         MOVF    _PORTC,W
                      00631 ;; >>> /home/sdcc-builder/build/sdcc-build/orig/sdcc/src/pic14/gen.c:7583:genCast
                      00632 ;;      1126 rIdx = r0x105E 
0097   0??? 0???      00633         BANKSEL r0x1004
0099   00??           00634         MOVWF   r0x1004
                      00635 ;; ***  addSign  1087
                      00636 ;;; /home/sdcc-builder/build/sdcc-build/orig/sdcc/src/pic14/genarith.c:1088:addSign *{*
                      00637 ;; >>> /home/sdcc-builder/build/sdcc-build/orig/sdcc/src/pic14/genarith.c:1107:addSign
                      00638 ;;      1126 rIdx = r0x105F 
009A   01??           00639         CLRF    r0x1005
                      00640 ;;; /home/sdcc-builder/build/sdcc-build/orig/sdcc/src/pic14/gen.c:2358:resultRemat *{*
                      00641 ;;; /home/sdcc-builder/build/sdcc-build/orig/sdcc/src/pic14/gen.c:4023:genAnd *{*
                      00642 ;; ***  genAnd  4024
                      00643 ;;      708 register type nRegs=2
                      00644 ;;      708 register type nRegs=2
                      00645 ;;      708 register type nRegs=2
                      00646 ;;      line = 4059 result AOP_REG=r0x105A, size=2, left AOP_REG=r0x105A, size=2, right AOP_REG=r0x105E,
                             size=2
                      00647 ;; >>> /home/sdcc-builder/build/sdcc-build/orig/sdcc/src/pic14/gen.c:4241:genAnd
                      00648 ;;      1126 rIdx = r0x105E 
009B   08??           00649         MOVF    r0x1004,W
                      00650 ;; >>> /home/sdcc-builder/build/sdcc-build/orig/sdcc/src/pic14/gen.c:4242:genAnd
                      00651 ;;      1126 rIdx = r0x105A 
009C   05??           00652         ANDWF   r0x1000,F
                      00653 ;; >>> /home/sdcc-builder/build/sdcc-build/orig/sdcc/src/pic14/gen.c:4241:genAnd
                      00654 ;;      1126 rIdx = r0x105F 
009D   3000           00655         MOVLW   0x00
                      00656 ;; >>> /home/sdcc-builder/build/sdcc-build/orig/sdcc/src/pic14/gen.c:4242:genAnd
                      00657 ;;      1126 rIdx = r0x105D 
009E   05??           00658         ANDWF   r0x1003,F
                      00659 ;;; /home/sdcc-builder/build/sdcc-build/orig/sdcc/src/pic14/gen.c:2358:resultRemat *{*
                      00660 ;;; /home/sdcc-builder/build/sdcc-build/orig/sdcc/src/pic14/gen.c:5667:genGenericShift *{*
                      00661 ;; ***  genGenericShift  5670
                      00662 ;;      708 register type nRegs=1
                      00663 ;;      708 register type nRegs=2
                      00664 ;;      708 register type nRegs=2
                      00665 ;; ***  mov2w  1395  offset=1
                      00666 ;; >>> /home/sdcc-builder/build/sdcc-build/orig/sdcc/src/pic14/gen.c:1400:mov2w
                      00667 ;;      1126 rIdx = r0x105D 
009F   08??           00668         MOVF    r0x1003,W
                      00669 ;; >>> /home/sdcc-builder/build/sdcc-build/orig/sdcc/src/pic14/gen.c:1407:movwf
                      00670 ;;      1126 rIdx = r0x105F 
00A0   00??           00671         MOVWF   r0x1005
                      00672 ;; ***  mov2w  1395  offset=0
                      00673 ;; >>> /home/sdcc-builder/build/sdcc-build/orig/sdcc/src/pic14/gen.c:1400:mov2w
                      00674 ;;      1126 rIdx = r0x105A 
00A1   08??           00675         MOVF    r0x1000,W
                      00676 ;; >>> /home/sdcc-builder/build/sdcc-build/orig/sdcc/src/pic14/gen.c:1407:movwf
gpasm-1.5.0 #1285 (Sep 12 2016) obj\Debug\gpi   7-19-2020  03:04:18         PAGE 14


LOC    OBJECT CODE    LINE  SOURCE TEXT
  VALUE

                      00677 ;;      1126 rIdx = r0x105E 
00A2   00??           00678         MOVWF   r0x1004
                      00679 ;; ***  addSign  1087
                      00680 ;;; /home/sdcc-builder/build/sdcc-build/orig/sdcc/src/pic14/genarith.c:1088:addSign *{*
                      00681 ;; ***  mov2w  1395  offset=0
                      00682 ;; >>> /home/sdcc-builder/build/sdcc-build/orig/sdcc/src/pic14/gen.c:1400:mov2w
                      00683 ;;      1126 rIdx = r0x105B 
00A3   08??           00684         MOVF    r0x1001,W
                      00685 ;; >>> /home/sdcc-builder/build/sdcc-build/orig/sdcc/src/pic14/gen.c:5741:genGenericShift
00A4   3C00           00686         SUBLW   0x00
                      00687 ;; >>> /home/sdcc-builder/build/sdcc-build/orig/sdcc/src/pic14/gen.c:5743:genGenericShift
00A5   1903           00688         BTFSC   STATUS,2
                      00689 ;; >>> /home/sdcc-builder/build/sdcc-build/orig/sdcc/src/pic14/gen.c:5744:genGenericShift
                      00690 ;; ***  popGetLabel  key=26, label offset 128
00A6   2???           00691         GOTO    _00254_DS_
                      00692 ;;; /home/sdcc-builder/build/sdcc-build/orig/sdcc/src/pic14/gen.c:5649:loadSignToC *{*
                      00693 ;; >>> /home/sdcc-builder/build/sdcc-build/orig/sdcc/src/pic14/gen.c:5652:loadSignToC
00A7                  00694 _00253_DS_:
00A7   1003           00695         BCF     STATUS,0
                      00696 ;; >>> /home/sdcc-builder/build/sdcc-build/orig/sdcc/src/pic14/gen.c:5653:loadSignToC
00A8   0??? 0???      00697         BANKSEL r0x1005
00AA   1B??           00698         BTFSC   r0x1005,7
                      00699 ;; >>> /home/sdcc-builder/build/sdcc-build/orig/sdcc/src/pic14/gen.c:5654:loadSignToC
00AB   1403           00700         BSF     STATUS,0
                      00701 ;;; /home/sdcc-builder/build/sdcc-build/orig/sdcc/src/pic14/gen.c:5618:genMultiAsm *{*
                      00702 ;; ***  genMultiAsm  5619
                      00703 ;; >>> /home/sdcc-builder/build/sdcc-build/orig/sdcc/src/pic14/gen.c:5636:genMultiAsm
                      00704 ;;      1126 rIdx = r0x105F 
00AC   0C??           00705         RRF     r0x1005,F
                      00706 ;; >>> /home/sdcc-builder/build/sdcc-build/orig/sdcc/src/pic14/gen.c:5636:genMultiAsm
                      00707 ;;      1126 rIdx = r0x105E 
00AD   0C??           00708         RRF     r0x1004,F
                      00709 ;; >>> /home/sdcc-builder/build/sdcc-build/orig/sdcc/src/pic14/gen.c:5750:genGenericShift
00AE   3E01           00710         ADDLW   0x01
                      00711 ;; >>> /home/sdcc-builder/build/sdcc-build/orig/sdcc/src/pic14/gen.c:5751:genGenericShift
00AF   1C03           00712         BTFSS   STATUS,0
                      00713 ;; >>> /home/sdcc-builder/build/sdcc-build/orig/sdcc/src/pic14/gen.c:5752:genGenericShift
                      00714 ;; ***  popGetLabel  key=25, label offset 128
00B0   2???           00715         GOTO    _00253_DS_
                      00716 ;;; /home/sdcc-builder/build/sdcc-build/orig/sdcc/src/pic14/gen.c:2358:resultRemat *{*
                      00717 ;;; /home/sdcc-builder/build/sdcc-build/orig/sdcc/src/pic14/gen.c:7386:genCast *{*
                      00718 ;; ***  genCast  7387
                      00719 ;;      708 register type nRegs=2
                      00720 ;;      708 register type nRegs=1
                      00721 ;;      line = 7395 result AOP_REG=r0x105C, size=1, left -=-, size=0, right AOP_REG=r0x105E, size=2
                      00722 ;; ***  genCast  7537
                      00723 ;; >>> /home/sdcc-builder/build/sdcc-build/orig/sdcc/src/pic14/gen.c:7561:genCast
                      00724 ;;      1126 rIdx = r0x105E 
00B1                  00725 _00254_DS_:
00B1   0??? 0???      00726         BANKSEL r0x1004
00B3   08??           00727         MOVF    r0x1004,W
                      00728 ;; >>> /home/sdcc-builder/build/sdcc-build/orig/sdcc/src/pic14/gen.c:7562:genCast
                      00729 ;;      1126 rIdx = r0x105C 
gpasm-1.5.0 #1285 (Sep 12 2016) obj\Debug\gpi   7-19-2020  03:04:18         PAGE 15


LOC    OBJECT CODE    LINE  SOURCE TEXT
  VALUE

00B4   00??           00730         MOVWF   r0x1002
                      00731 ;;; /home/sdcc-builder/build/sdcc-build/orig/sdcc/src/pic14/gen.c:2358:resultRemat *{*
                      00732 ;;; /home/sdcc-builder/build/sdcc-build/orig/sdcc/src/pic14/gen.c:2820:genGoto *{*
                      00733 ;; >>> /home/sdcc-builder/build/sdcc-build/orig/sdcc/src/pic14/gen.c:2822:genGoto
                      00734 ;; ***  popGetLabel  key=6, label offset 128
                      00735         .line   104; "gpio.c"   break;
00B5   2???           00736         GOTO    _00234_DS_
                      00737 ;;; /home/sdcc-builder/build/sdcc-build/orig/sdcc/src/pic14/gen.c:2358:resultRemat *{*
                      00738 ;;; /home/sdcc-builder/build/sdcc-build/orig/sdcc/src/pic14/gen.c:2802:genLabel *{*
                      00739 ;; ***  genLabel  2805
                      00740 ;;; /home/sdcc-builder/build/sdcc-build/orig/sdcc/src/pic14/gen.c:2358:resultRemat *{*
                      00741 ;;; /home/sdcc-builder/build/sdcc-build/orig/sdcc/src/pic14/gen.c:5667:genGenericShift *{*
                      00742 ;; ***  genGenericShift  5670
                      00743 ;;      708 register type nRegs=1
                      00744 ;;      708 register type nRegs=2
                      00745 ;; ***  mov2w  1395  offset=1
                      00746 ;; >>> /home/sdcc-builder/build/sdcc-build/orig/sdcc/src/pic14/gen.c:1398:mov2w
00B6                  00747 _00232_DS_:
                      00748         .line   108; "gpio.c"   ret =  READ_REGISTER_PIN(PORTD, pin);
00B6   3000           00749         MOVLW   0x00
                      00750 ;; >>> /home/sdcc-builder/build/sdcc-build/orig/sdcc/src/pic14/gen.c:1407:movwf
                      00751 ;;      1126 rIdx = r0x105D 
00B7   0??? 0???      00752         BANKSEL r0x1003
00B9   00??           00753         MOVWF   r0x1003
                      00754 ;; ***  mov2w  1395  offset=0
                      00755 ;; >>> /home/sdcc-builder/build/sdcc-build/orig/sdcc/src/pic14/gen.c:1398:mov2w
00BA   3001           00756         MOVLW   0x01
                      00757 ;; >>> /home/sdcc-builder/build/sdcc-build/orig/sdcc/src/pic14/gen.c:1407:movwf
                      00758 ;;      1126 rIdx = r0x105A 
00BB   00??           00759         MOVWF   r0x1000
                      00760 ;; ***  addSign  1087
                      00761 ;;; /home/sdcc-builder/build/sdcc-build/orig/sdcc/src/pic14/genarith.c:1088:addSign *{*
                      00762 ;; ***  mov2w  1395  offset=0
                      00763 ;; >>> /home/sdcc-builder/build/sdcc-build/orig/sdcc/src/pic14/gen.c:1400:mov2w
                      00764 ;;      1126 rIdx = r0x105B 
00BC   08??           00765         MOVF    r0x1001,W
                      00766 ;; >>> /home/sdcc-builder/build/sdcc-build/orig/sdcc/src/pic14/gen.c:5741:genGenericShift
00BD   3C00           00767         SUBLW   0x00
                      00768 ;; >>> /home/sdcc-builder/build/sdcc-build/orig/sdcc/src/pic14/gen.c:5743:genGenericShift
00BE   1903           00769         BTFSC   STATUS,2
                      00770 ;; >>> /home/sdcc-builder/build/sdcc-build/orig/sdcc/src/pic14/gen.c:5744:genGenericShift
                      00771 ;; ***  popGetLabel  key=28, label offset 128
00BF   2???           00772         GOTO    _00256_DS_
                      00773 ;;; /home/sdcc-builder/build/sdcc-build/orig/sdcc/src/pic14/gen.c:5618:genMultiAsm *{*
                      00774 ;; ***  genMultiAsm  5619
                      00775 ;; >>> /home/sdcc-builder/build/sdcc-build/orig/sdcc/src/pic14/gen.c:5636:genMultiAsm
                      00776 ;;      1126 rIdx = r0x105A 
00C0                  00777 _00255_DS_:
00C0   0??? 0???      00778         BANKSEL r0x1000
00C2   0D??           00779         RLF     r0x1000,F
                      00780 ;; >>> /home/sdcc-builder/build/sdcc-build/orig/sdcc/src/pic14/gen.c:5636:genMultiAsm
                      00781 ;;      1126 rIdx = r0x105D 
00C3   0D??           00782         RLF     r0x1003,F
gpasm-1.5.0 #1285 (Sep 12 2016) obj\Debug\gpi   7-19-2020  03:04:18         PAGE 16


LOC    OBJECT CODE    LINE  SOURCE TEXT
  VALUE

                      00783 ;; >>> /home/sdcc-builder/build/sdcc-build/orig/sdcc/src/pic14/gen.c:5750:genGenericShift
00C4   3E01           00784         ADDLW   0x01
                      00785 ;; >>> /home/sdcc-builder/build/sdcc-build/orig/sdcc/src/pic14/gen.c:5751:genGenericShift
00C5   1C03           00786         BTFSS   STATUS,0
                      00787 ;; >>> /home/sdcc-builder/build/sdcc-build/orig/sdcc/src/pic14/gen.c:5752:genGenericShift
                      00788 ;; ***  popGetLabel  key=27, label offset 128
00C6   2???           00789         GOTO    _00255_DS_
                      00790 ;;; /home/sdcc-builder/build/sdcc-build/orig/sdcc/src/pic14/gen.c:2358:resultRemat *{*
                      00791 ;;; /home/sdcc-builder/build/sdcc-build/orig/sdcc/src/pic14/gen.c:7386:genCast *{*
                      00792 ;; ***  genCast  7387
                      00793 ;; ***  aopForSym 324
                      00794 ;;      336 sym->rname = _PORTD, size = 1
                      00795 ;;      708 register type nRegs=2
                      00796 ;;      line = 7395 result AOP_REG=r0x105E, size=2, left -=-, size=0, right AOP_DIR=_PORTD, size=1
                      00797 ;; >>> /home/sdcc-builder/build/sdcc-build/orig/sdcc/src/pic14/gen.c:7582:genCast
                      00798 ;;      1027
                      00799 ;;      1045  _PORTD   offset=0
00C7                  00800 _00256_DS_:
00C7   0??? 0???      00801         BANKSEL _PORTD
00C9   08??           00802         MOVF    _PORTD,W
                      00803 ;; >>> /home/sdcc-builder/build/sdcc-build/orig/sdcc/src/pic14/gen.c:7583:genCast
                      00804 ;;      1126 rIdx = r0x105E 
00CA   0??? 0???      00805         BANKSEL r0x1004
00CC   00??           00806         MOVWF   r0x1004
                      00807 ;; ***  addSign  1087
                      00808 ;;; /home/sdcc-builder/build/sdcc-build/orig/sdcc/src/pic14/genarith.c:1088:addSign *{*
                      00809 ;; >>> /home/sdcc-builder/build/sdcc-build/orig/sdcc/src/pic14/genarith.c:1107:addSign
                      00810 ;;      1126 rIdx = r0x105F 
00CD   01??           00811         CLRF    r0x1005
                      00812 ;;; /home/sdcc-builder/build/sdcc-build/orig/sdcc/src/pic14/gen.c:2358:resultRemat *{*
                      00813 ;;; /home/sdcc-builder/build/sdcc-build/orig/sdcc/src/pic14/gen.c:4023:genAnd *{*
                      00814 ;; ***  genAnd  4024
                      00815 ;;      708 register type nRegs=2
                      00816 ;;      708 register type nRegs=2
                      00817 ;;      708 register type nRegs=2
                      00818 ;;      line = 4059 result AOP_REG=r0x105A, size=2, left AOP_REG=r0x105A, size=2, right AOP_REG=r0x105E,
                             size=2
                      00819 ;; >>> /home/sdcc-builder/build/sdcc-build/orig/sdcc/src/pic14/gen.c:4241:genAnd
                      00820 ;;      1126 rIdx = r0x105E 
00CE   08??           00821         MOVF    r0x1004,W
                      00822 ;; >>> /home/sdcc-builder/build/sdcc-build/orig/sdcc/src/pic14/gen.c:4242:genAnd
                      00823 ;;      1126 rIdx = r0x105A 
00CF   05??           00824         ANDWF   r0x1000,F
                      00825 ;; >>> /home/sdcc-builder/build/sdcc-build/orig/sdcc/src/pic14/gen.c:4241:genAnd
                      00826 ;;      1126 rIdx = r0x105F 
00D0   3000           00827         MOVLW   0x00
                      00828 ;; >>> /home/sdcc-builder/build/sdcc-build/orig/sdcc/src/pic14/gen.c:4242:genAnd
                      00829 ;;      1126 rIdx = r0x105D 
00D1   05??           00830         ANDWF   r0x1003,F
                      00831 ;;; /home/sdcc-builder/build/sdcc-build/orig/sdcc/src/pic14/gen.c:2358:resultRemat *{*
                      00832 ;;; /home/sdcc-builder/build/sdcc-build/orig/sdcc/src/pic14/gen.c:5667:genGenericShift *{*
                      00833 ;; ***  genGenericShift  5670
                      00834 ;;      708 register type nRegs=1
gpasm-1.5.0 #1285 (Sep 12 2016) obj\Debug\gpi   7-19-2020  03:04:18         PAGE 17


LOC    OBJECT CODE    LINE  SOURCE TEXT
  VALUE

                      00835 ;;      708 register type nRegs=2
                      00836 ;;      708 register type nRegs=2
                      00837 ;; ***  mov2w  1395  offset=1
                      00838 ;; >>> /home/sdcc-builder/build/sdcc-build/orig/sdcc/src/pic14/gen.c:1400:mov2w
                      00839 ;;      1126 rIdx = r0x105D 
00D2   08??           00840         MOVF    r0x1003,W
                      00841 ;; >>> /home/sdcc-builder/build/sdcc-build/orig/sdcc/src/pic14/gen.c:1407:movwf
                      00842 ;;      1126 rIdx = r0x105F 
00D3   00??           00843         MOVWF   r0x1005
                      00844 ;; ***  mov2w  1395  offset=0
                      00845 ;; >>> /home/sdcc-builder/build/sdcc-build/orig/sdcc/src/pic14/gen.c:1400:mov2w
                      00846 ;;      1126 rIdx = r0x105A 
00D4   08??           00847         MOVF    r0x1000,W
                      00848 ;; >>> /home/sdcc-builder/build/sdcc-build/orig/sdcc/src/pic14/gen.c:1407:movwf
                      00849 ;;      1126 rIdx = r0x105E 
00D5   00??           00850         MOVWF   r0x1004
                      00851 ;; ***  addSign  1087
                      00852 ;;; /home/sdcc-builder/build/sdcc-build/orig/sdcc/src/pic14/genarith.c:1088:addSign *{*
                      00853 ;; ***  mov2w  1395  offset=0
                      00854 ;; >>> /home/sdcc-builder/build/sdcc-build/orig/sdcc/src/pic14/gen.c:1400:mov2w
                      00855 ;;      1126 rIdx = r0x105B 
00D6   08??           00856         MOVF    r0x1001,W
                      00857 ;; >>> /home/sdcc-builder/build/sdcc-build/orig/sdcc/src/pic14/gen.c:5741:genGenericShift
00D7   3C00           00858         SUBLW   0x00
                      00859 ;; >>> /home/sdcc-builder/build/sdcc-build/orig/sdcc/src/pic14/gen.c:5743:genGenericShift
00D8   1903           00860         BTFSC   STATUS,2
                      00861 ;; >>> /home/sdcc-builder/build/sdcc-build/orig/sdcc/src/pic14/gen.c:5744:genGenericShift
                      00862 ;; ***  popGetLabel  key=30, label offset 128
00D9   2???           00863         GOTO    _00258_DS_
                      00864 ;;; /home/sdcc-builder/build/sdcc-build/orig/sdcc/src/pic14/gen.c:5649:loadSignToC *{*
                      00865 ;; >>> /home/sdcc-builder/build/sdcc-build/orig/sdcc/src/pic14/gen.c:5652:loadSignToC
00DA                  00866 _00257_DS_:
00DA   1003           00867         BCF     STATUS,0
                      00868 ;; >>> /home/sdcc-builder/build/sdcc-build/orig/sdcc/src/pic14/gen.c:5653:loadSignToC
00DB   0??? 0???      00869         BANKSEL r0x1005
00DD   1B??           00870         BTFSC   r0x1005,7
                      00871 ;; >>> /home/sdcc-builder/build/sdcc-build/orig/sdcc/src/pic14/gen.c:5654:loadSignToC
00DE   1403           00872         BSF     STATUS,0
                      00873 ;;; /home/sdcc-builder/build/sdcc-build/orig/sdcc/src/pic14/gen.c:5618:genMultiAsm *{*
                      00874 ;; ***  genMultiAsm  5619
                      00875 ;; >>> /home/sdcc-builder/build/sdcc-build/orig/sdcc/src/pic14/gen.c:5636:genMultiAsm
                      00876 ;;      1126 rIdx = r0x105F 
00DF   0C??           00877         RRF     r0x1005,F
                      00878 ;; >>> /home/sdcc-builder/build/sdcc-build/orig/sdcc/src/pic14/gen.c:5636:genMultiAsm
                      00879 ;;      1126 rIdx = r0x105E 
00E0   0C??           00880         RRF     r0x1004,F
                      00881 ;; >>> /home/sdcc-builder/build/sdcc-build/orig/sdcc/src/pic14/gen.c:5750:genGenericShift
00E1   3E01           00882         ADDLW   0x01
                      00883 ;; >>> /home/sdcc-builder/build/sdcc-build/orig/sdcc/src/pic14/gen.c:5751:genGenericShift
00E2   1C03           00884         BTFSS   STATUS,0
                      00885 ;; >>> /home/sdcc-builder/build/sdcc-build/orig/sdcc/src/pic14/gen.c:5752:genGenericShift
                      00886 ;; ***  popGetLabel  key=29, label offset 128
00E3   2???           00887         GOTO    _00257_DS_
gpasm-1.5.0 #1285 (Sep 12 2016) obj\Debug\gpi   7-19-2020  03:04:18         PAGE 18


LOC    OBJECT CODE    LINE  SOURCE TEXT
  VALUE

                      00888 ;;; /home/sdcc-builder/build/sdcc-build/orig/sdcc/src/pic14/gen.c:2358:resultRemat *{*
                      00889 ;;; /home/sdcc-builder/build/sdcc-build/orig/sdcc/src/pic14/gen.c:7386:genCast *{*
                      00890 ;; ***  genCast  7387
                      00891 ;;      708 register type nRegs=2
                      00892 ;;      708 register type nRegs=1
                      00893 ;;      line = 7395 result AOP_REG=r0x105C, size=1, left -=-, size=0, right AOP_REG=r0x105E, size=2
                      00894 ;; ***  genCast  7537
                      00895 ;; >>> /home/sdcc-builder/build/sdcc-build/orig/sdcc/src/pic14/gen.c:7561:genCast
                      00896 ;;      1126 rIdx = r0x105E 
00E4                  00897 _00258_DS_:
00E4   0??? 0???      00898         BANKSEL r0x1004
00E6   08??           00899         MOVF    r0x1004,W
                      00900 ;; >>> /home/sdcc-builder/build/sdcc-build/orig/sdcc/src/pic14/gen.c:7562:genCast
                      00901 ;;      1126 rIdx = r0x105C 
00E7   00??           00902         MOVWF   r0x1002
                      00903 ;;; /home/sdcc-builder/build/sdcc-build/orig/sdcc/src/pic14/gen.c:2358:resultRemat *{*
                      00904 ;;; /home/sdcc-builder/build/sdcc-build/orig/sdcc/src/pic14/gen.c:2820:genGoto *{*
                      00905 ;; >>> /home/sdcc-builder/build/sdcc-build/orig/sdcc/src/pic14/gen.c:2822:genGoto
                      00906 ;; ***  popGetLabel  key=6, label offset 128
                      00907         .line   109; "gpio.c"   break;
00E8   2???           00908         GOTO    _00234_DS_
                      00909 ;;; /home/sdcc-builder/build/sdcc-build/orig/sdcc/src/pic14/gen.c:2358:resultRemat *{*
                      00910 ;;; /home/sdcc-builder/build/sdcc-build/orig/sdcc/src/pic14/gen.c:2802:genLabel *{*
                      00911 ;; ***  genLabel  2805
                      00912 ;;; /home/sdcc-builder/build/sdcc-build/orig/sdcc/src/pic14/gen.c:2358:resultRemat *{*
                      00913 ;;; /home/sdcc-builder/build/sdcc-build/orig/sdcc/src/pic14/gen.c:5667:genGenericShift *{*
                      00914 ;; ***  genGenericShift  5670
                      00915 ;;      708 register type nRegs=1
                      00916 ;;      708 register type nRegs=2
                      00917 ;; ***  mov2w  1395  offset=1
                      00918 ;; >>> /home/sdcc-builder/build/sdcc-build/orig/sdcc/src/pic14/gen.c:1398:mov2w
00E9                  00919 _00233_DS_:
                      00920         .line   112; "gpio.c"   ret =  READ_REGISTER_PIN(PORTE, pin);
00E9   3000           00921         MOVLW   0x00
                      00922 ;; >>> /home/sdcc-builder/build/sdcc-build/orig/sdcc/src/pic14/gen.c:1407:movwf
                      00923 ;;      1126 rIdx = r0x105D 
00EA   0??? 0???      00924         BANKSEL r0x1003
00EC   00??           00925         MOVWF   r0x1003
                      00926 ;; ***  mov2w  1395  offset=0
                      00927 ;; >>> /home/sdcc-builder/build/sdcc-build/orig/sdcc/src/pic14/gen.c:1398:mov2w
00ED   3001           00928         MOVLW   0x01
                      00929 ;; >>> /home/sdcc-builder/build/sdcc-build/orig/sdcc/src/pic14/gen.c:1407:movwf
                      00930 ;;      1126 rIdx = r0x105A 
00EE   00??           00931         MOVWF   r0x1000
                      00932 ;; ***  addSign  1087
                      00933 ;;; /home/sdcc-builder/build/sdcc-build/orig/sdcc/src/pic14/genarith.c:1088:addSign *{*
                      00934 ;; ***  mov2w  1395  offset=0
                      00935 ;; >>> /home/sdcc-builder/build/sdcc-build/orig/sdcc/src/pic14/gen.c:1400:mov2w
                      00936 ;;      1126 rIdx = r0x105B 
00EF   08??           00937         MOVF    r0x1001,W
                      00938 ;; >>> /home/sdcc-builder/build/sdcc-build/orig/sdcc/src/pic14/gen.c:5741:genGenericShift
00F0   3C00           00939         SUBLW   0x00
                      00940 ;; >>> /home/sdcc-builder/build/sdcc-build/orig/sdcc/src/pic14/gen.c:5743:genGenericShift
gpasm-1.5.0 #1285 (Sep 12 2016) obj\Debug\gpi   7-19-2020  03:04:18         PAGE 19


LOC    OBJECT CODE    LINE  SOURCE TEXT
  VALUE

00F1   1903           00941         BTFSC   STATUS,2
                      00942 ;; >>> /home/sdcc-builder/build/sdcc-build/orig/sdcc/src/pic14/gen.c:5744:genGenericShift
                      00943 ;; ***  popGetLabel  key=32, label offset 128
00F2   2???           00944         GOTO    _00260_DS_
                      00945 ;;; /home/sdcc-builder/build/sdcc-build/orig/sdcc/src/pic14/gen.c:5618:genMultiAsm *{*
                      00946 ;; ***  genMultiAsm  5619
                      00947 ;; >>> /home/sdcc-builder/build/sdcc-build/orig/sdcc/src/pic14/gen.c:5636:genMultiAsm
                      00948 ;;      1126 rIdx = r0x105A 
00F3                  00949 _00259_DS_:
00F3   0??? 0???      00950         BANKSEL r0x1000
00F5   0D??           00951         RLF     r0x1000,F
                      00952 ;; >>> /home/sdcc-builder/build/sdcc-build/orig/sdcc/src/pic14/gen.c:5636:genMultiAsm
                      00953 ;;      1126 rIdx = r0x105D 
00F6   0D??           00954         RLF     r0x1003,F
                      00955 ;; >>> /home/sdcc-builder/build/sdcc-build/orig/sdcc/src/pic14/gen.c:5750:genGenericShift
00F7   3E01           00956         ADDLW   0x01
                      00957 ;; >>> /home/sdcc-builder/build/sdcc-build/orig/sdcc/src/pic14/gen.c:5751:genGenericShift
00F8   1C03           00958         BTFSS   STATUS,0
                      00959 ;; >>> /home/sdcc-builder/build/sdcc-build/orig/sdcc/src/pic14/gen.c:5752:genGenericShift
                      00960 ;; ***  popGetLabel  key=31, label offset 128
00F9   2???           00961         GOTO    _00259_DS_
                      00962 ;;; /home/sdcc-builder/build/sdcc-build/orig/sdcc/src/pic14/gen.c:2358:resultRemat *{*
                      00963 ;;; /home/sdcc-builder/build/sdcc-build/orig/sdcc/src/pic14/gen.c:7386:genCast *{*
                      00964 ;; ***  genCast  7387
                      00965 ;; ***  aopForSym 324
                      00966 ;;      336 sym->rname = _PORTE, size = 1
                      00967 ;;      708 register type nRegs=2
                      00968 ;;      line = 7395 result AOP_REG=r0x105E, size=2, left -=-, size=0, right AOP_DIR=_PORTE, size=1
                      00969 ;; >>> /home/sdcc-builder/build/sdcc-build/orig/sdcc/src/pic14/gen.c:7582:genCast
                      00970 ;;      1027
                      00971 ;;      1045  _PORTE   offset=0
00FA                  00972 _00260_DS_:
00FA   0??? 0???      00973         BANKSEL _PORTE
00FC   08??           00974         MOVF    _PORTE,W
                      00975 ;; >>> /home/sdcc-builder/build/sdcc-build/orig/sdcc/src/pic14/gen.c:7583:genCast
                      00976 ;;      1126 rIdx = r0x105E 
00FD   0??? 0???      00977         BANKSEL r0x1004
00FF   00??           00978         MOVWF   r0x1004
                      00979 ;; ***  addSign  1087
                      00980 ;;; /home/sdcc-builder/build/sdcc-build/orig/sdcc/src/pic14/genarith.c:1088:addSign *{*
                      00981 ;; >>> /home/sdcc-builder/build/sdcc-build/orig/sdcc/src/pic14/genarith.c:1107:addSign
                      00982 ;;      1126 rIdx = r0x105F 
0100   01??           00983         CLRF    r0x1005
                      00984 ;;; /home/sdcc-builder/build/sdcc-build/orig/sdcc/src/pic14/gen.c:2358:resultRemat *{*
                      00985 ;;; /home/sdcc-builder/build/sdcc-build/orig/sdcc/src/pic14/gen.c:4023:genAnd *{*
                      00986 ;; ***  genAnd  4024
                      00987 ;;      708 register type nRegs=2
                      00988 ;;      708 register type nRegs=2
                      00989 ;;      708 register type nRegs=2
                      00990 ;;      line = 4059 result AOP_REG=r0x105A, size=2, left AOP_REG=r0x105A, size=2, right AOP_REG=r0x105E,
                             size=2
                      00991 ;; >>> /home/sdcc-builder/build/sdcc-build/orig/sdcc/src/pic14/gen.c:4241:genAnd
                      00992 ;;      1126 rIdx = r0x105E 
gpasm-1.5.0 #1285 (Sep 12 2016) obj\Debug\gpi   7-19-2020  03:04:18         PAGE 20


LOC    OBJECT CODE    LINE  SOURCE TEXT
  VALUE

0101   08??           00993         MOVF    r0x1004,W
                      00994 ;; >>> /home/sdcc-builder/build/sdcc-build/orig/sdcc/src/pic14/gen.c:4242:genAnd
                      00995 ;;      1126 rIdx = r0x105A 
0102   05??           00996         ANDWF   r0x1000,F
                      00997 ;; >>> /home/sdcc-builder/build/sdcc-build/orig/sdcc/src/pic14/gen.c:4241:genAnd
                      00998 ;;      1126 rIdx = r0x105F 
0103   3000           00999         MOVLW   0x00
                      01000 ;; >>> /home/sdcc-builder/build/sdcc-build/orig/sdcc/src/pic14/gen.c:4242:genAnd
                      01001 ;;      1126 rIdx = r0x105D 
0104   05??           01002         ANDWF   r0x1003,F
                      01003 ;;; /home/sdcc-builder/build/sdcc-build/orig/sdcc/src/pic14/gen.c:2358:resultRemat *{*
                      01004 ;;; /home/sdcc-builder/build/sdcc-build/orig/sdcc/src/pic14/gen.c:5667:genGenericShift *{*
                      01005 ;; ***  genGenericShift  5670
                      01006 ;;      708 register type nRegs=1
                      01007 ;;      708 register type nRegs=2
                      01008 ;;      708 register type nRegs=2
                      01009 ;; ***  mov2w  1395  offset=1
                      01010 ;; >>> /home/sdcc-builder/build/sdcc-build/orig/sdcc/src/pic14/gen.c:1400:mov2w
                      01011 ;;      1126 rIdx = r0x105D 
0105   08??           01012         MOVF    r0x1003,W
                      01013 ;; >>> /home/sdcc-builder/build/sdcc-build/orig/sdcc/src/pic14/gen.c:1407:movwf
                      01014 ;;      1126 rIdx = r0x105F 
0106   00??           01015         MOVWF   r0x1005
                      01016 ;; ***  mov2w  1395  offset=0
                      01017 ;; >>> /home/sdcc-builder/build/sdcc-build/orig/sdcc/src/pic14/gen.c:1400:mov2w
                      01018 ;;      1126 rIdx = r0x105A 
0107   08??           01019         MOVF    r0x1000,W
                      01020 ;; >>> /home/sdcc-builder/build/sdcc-build/orig/sdcc/src/pic14/gen.c:1407:movwf
                      01021 ;;      1126 rIdx = r0x105E 
0108   00??           01022         MOVWF   r0x1004
                      01023 ;; ***  addSign  1087
                      01024 ;;; /home/sdcc-builder/build/sdcc-build/orig/sdcc/src/pic14/genarith.c:1088:addSign *{*
                      01025 ;; ***  mov2w  1395  offset=0
                      01026 ;; >>> /home/sdcc-builder/build/sdcc-build/orig/sdcc/src/pic14/gen.c:1400:mov2w
                      01027 ;;      1126 rIdx = r0x105B 
0109   08??           01028         MOVF    r0x1001,W
                      01029 ;; >>> /home/sdcc-builder/build/sdcc-build/orig/sdcc/src/pic14/gen.c:5741:genGenericShift
010A   3C00           01030         SUBLW   0x00
                      01031 ;; >>> /home/sdcc-builder/build/sdcc-build/orig/sdcc/src/pic14/gen.c:5743:genGenericShift
010B   1903           01032         BTFSC   STATUS,2
                      01033 ;; >>> /home/sdcc-builder/build/sdcc-build/orig/sdcc/src/pic14/gen.c:5744:genGenericShift
                      01034 ;; ***  popGetLabel  key=34, label offset 128
010C   2???           01035         GOTO    _00262_DS_
                      01036 ;;; /home/sdcc-builder/build/sdcc-build/orig/sdcc/src/pic14/gen.c:5649:loadSignToC *{*
                      01037 ;; >>> /home/sdcc-builder/build/sdcc-build/orig/sdcc/src/pic14/gen.c:5652:loadSignToC
010D                  01038 _00261_DS_:
010D   1003           01039         BCF     STATUS,0
                      01040 ;; >>> /home/sdcc-builder/build/sdcc-build/orig/sdcc/src/pic14/gen.c:5653:loadSignToC
010E   0??? 0???      01041         BANKSEL r0x1005
0110   1B??           01042         BTFSC   r0x1005,7
                      01043 ;; >>> /home/sdcc-builder/build/sdcc-build/orig/sdcc/src/pic14/gen.c:5654:loadSignToC
0111   1403           01044         BSF     STATUS,0
                      01045 ;;; /home/sdcc-builder/build/sdcc-build/orig/sdcc/src/pic14/gen.c:5618:genMultiAsm *{*
gpasm-1.5.0 #1285 (Sep 12 2016) obj\Debug\gpi   7-19-2020  03:04:18         PAGE 21


LOC    OBJECT CODE    LINE  SOURCE TEXT
  VALUE

                      01046 ;; ***  genMultiAsm  5619
                      01047 ;; >>> /home/sdcc-builder/build/sdcc-build/orig/sdcc/src/pic14/gen.c:5636:genMultiAsm
                      01048 ;;      1126 rIdx = r0x105F 
0112   0C??           01049         RRF     r0x1005,F
                      01050 ;; >>> /home/sdcc-builder/build/sdcc-build/orig/sdcc/src/pic14/gen.c:5636:genMultiAsm
                      01051 ;;      1126 rIdx = r0x105E 
0113   0C??           01052         RRF     r0x1004,F
                      01053 ;; >>> /home/sdcc-builder/build/sdcc-build/orig/sdcc/src/pic14/gen.c:5750:genGenericShift
0114   3E01           01054         ADDLW   0x01
                      01055 ;; >>> /home/sdcc-builder/build/sdcc-build/orig/sdcc/src/pic14/gen.c:5751:genGenericShift
0115   1C03           01056         BTFSS   STATUS,0
                      01057 ;; >>> /home/sdcc-builder/build/sdcc-build/orig/sdcc/src/pic14/gen.c:5752:genGenericShift
                      01058 ;; ***  popGetLabel  key=33, label offset 128
0116   2???           01059         GOTO    _00261_DS_
                      01060 ;;; /home/sdcc-builder/build/sdcc-build/orig/sdcc/src/pic14/gen.c:2358:resultRemat *{*
                      01061 ;;; /home/sdcc-builder/build/sdcc-build/orig/sdcc/src/pic14/gen.c:7386:genCast *{*
                      01062 ;; ***  genCast  7387
                      01063 ;;      708 register type nRegs=2
                      01064 ;;      708 register type nRegs=1
                      01065 ;;      line = 7395 result AOP_REG=r0x105C, size=1, left -=-, size=0, right AOP_REG=r0x105E, size=2
                      01066 ;; ***  genCast  7537
                      01067 ;; >>> /home/sdcc-builder/build/sdcc-build/orig/sdcc/src/pic14/gen.c:7561:genCast
                      01068 ;;      1126 rIdx = r0x105E 
0117                  01069 _00262_DS_:
0117   0??? 0???      01070         BANKSEL r0x1004
0119   08??           01071         MOVF    r0x1004,W
                      01072 ;; >>> /home/sdcc-builder/build/sdcc-build/orig/sdcc/src/pic14/gen.c:7562:genCast
                      01073 ;;      1126 rIdx = r0x105C 
011A   00??           01074         MOVWF   r0x1002
                      01075 ;;; /home/sdcc-builder/build/sdcc-build/orig/sdcc/src/pic14/gen.c:2358:resultRemat *{*
                      01076 ;;; /home/sdcc-builder/build/sdcc-build/orig/sdcc/src/pic14/gen.c:2802:genLabel *{*
                      01077 ;; ***  genLabel  2805
                      01078 ;;; /home/sdcc-builder/build/sdcc-build/orig/sdcc/src/pic14/gen.c:2358:resultRemat *{*
                      01079 ;;; /home/sdcc-builder/build/sdcc-build/orig/sdcc/src/pic14/gen.c:2725:genRet *{*
                      01080 ;; ***  genRet  2727
                      01081 ;;      708 register type nRegs=1
                      01082 ;;; /home/sdcc-builder/build/sdcc-build/orig/sdcc/src/pic14/gen.c:1357:mov2w_op *{*
                      01083 ;; ***  mov2w  1395  offset=0
                      01084 ;; >>> /home/sdcc-builder/build/sdcc-build/orig/sdcc/src/pic14/gen.c:1400:mov2w
                      01085 ;;      1126 rIdx = r0x105C 
011B                  01086 _00234_DS_:
                      01087         .line   117; "gpio.c"   return ret;
011B   0??? 0???      01088         BANKSEL r0x1002
011D   08??           01089         MOVF    r0x1002,W
                      01090 ;;; /home/sdcc-builder/build/sdcc-build/orig/sdcc/src/pic14/gen.c:2358:resultRemat *{*
                      01091 ;;; /home/sdcc-builder/build/sdcc-build/orig/sdcc/src/pic14/gen.c:2802:genLabel *{*
                      01092 ;; ***  genLabel  2805
                      01093 ;;; /home/sdcc-builder/build/sdcc-build/orig/sdcc/src/pic14/gen.c:2358:resultRemat *{*
                      01094 ;;; /home/sdcc-builder/build/sdcc-build/orig/sdcc/src/pic14/gen.c:2570:genEndFunction *{*
                      01095 ;; ***  genEndFunction  2572
                      01096         .line   118; "gpio.c"   }
011E   0008           01097         RETURN  
                      01098 ; exit point of _GPIO_GetPortPinState
gpasm-1.5.0 #1285 (Sep 12 2016) obj\Debug\gpi   7-19-2020  03:04:18         PAGE 22


LOC    OBJECT CODE    LINE  SOURCE TEXT
  VALUE

                      01099 
                      01100 ;***
                      01101 ;  pBlock Stats: dbName = C
                      01102 ;***
                      01103 ;has an exit
                      01104 ;functions called:
                      01105 ;   _GPIO_SetPortPinState
                      01106 ;   _GPIO_SetPortPinState
                      01107 ;9 compiler assigned registers:
                      01108 ;   r0x100B
                      01109 ;   STK00
                      01110 ;   r0x100C
                      01111 ;   r0x100D
                      01112 ;   r0x100E
                      01113 ;   r0x100F
                      01114 ;   r0x1010
                      01115 ;   r0x1011
                      01116 ;   STK01
                      01117 ;; Starting pCode block
                      01118 ;;; /home/sdcc-builder/build/sdcc-build/orig/sdcc/src/pic14/gen.c:2358:resultRemat *{*
                      01119 ;;; /home/sdcc-builder/build/sdcc-build/orig/sdcc/src/pic14/gen.c:2802:genLabel *{*
                      01120 ;; ***  genLabel  2805
                      01121 ;;; /home/sdcc-builder/build/sdcc-build/orig/sdcc/src/pic14/gen.c:2358:resultRemat *{*
                      01122 ;;; /home/sdcc-builder/build/sdcc-build/orig/sdcc/src/pic14/gen.c:2382:genFunction *{*
                      01123 ;; ***  genFunction  2384 curr label offset=62previous max_key=44 
                      01124 S_gpio__GPIO_SetPortState       code
0000                  01125 _GPIO_SetPortState:
                      01126 ; 2 exit points
                      01127 ;;; /home/sdcc-builder/build/sdcc-build/orig/sdcc/src/pic14/gen.c:2358:resultRemat *{*
                      01128 ;;; /home/sdcc-builder/build/sdcc-build/orig/sdcc/src/pic14/gen.c:7642:genReceive *{*
                      01129 ;; ***  genReceive  7643
                      01130 ;;      708 register type nRegs=1
                      01131 ;;; /home/sdcc-builder/build/sdcc-build/orig/sdcc/src/pic14/gen.c:1929:assignResultValue *{*
                      01132 ;; ***  assignResultValue  1931
                      01133 ;;      line = 1933 result -=-, size=0, left AOP_REG=r0x1053, size=1, right -=-, size=0
                      01134 ;; >>> /home/sdcc-builder/build/sdcc-build/orig/sdcc/src/pic14/gen.c:1407:movwf
                      01135 ;;      1126 rIdx = r0x1053 
                      01136         .line   78; "gpio.c"    void GPIO_SetPortState(tPort port, unsigned char state)
0000   0??? 0???      01137         BANKSEL r0x100B
0002   00??           01138         MOVWF   r0x100B
                      01139 ;;; /home/sdcc-builder/build/sdcc-build/orig/sdcc/src/pic14/gen.c:2358:resultRemat *{*
                      01140 ;;; /home/sdcc-builder/build/sdcc-build/orig/sdcc/src/pic14/gen.c:7642:genReceive *{*
                      01141 ;; ***  genReceive  7643
                      01142 ;;      708 register type nRegs=1
                      01143 ;;; /home/sdcc-builder/build/sdcc-build/orig/sdcc/src/pic14/gen.c:1929:assignResultValue *{*
                      01144 ;; ***  assignResultValue  1931
                      01145 ;;      line = 1933 result -=-, size=0, left AOP_REG=r0x1054, size=1, right -=-, size=0
                      01146 ;; >>> /home/sdcc-builder/build/sdcc-build/orig/sdcc/src/pic14/gen.c:1437:get_returnvalue
                      01147 ;; ***  popRegFromIdx,1059  , rIdx=0x7f
0003   08??           01148         MOVF    STK00,W
                      01149 ;; >>> /home/sdcc-builder/build/sdcc-build/orig/sdcc/src/pic14/gen.c:1407:movwf
                      01150 ;;      1126 rIdx = r0x1054 
0004   00??           01151         MOVWF   r0x100C
gpasm-1.5.0 #1285 (Sep 12 2016) obj\Debug\gpi   7-19-2020  03:04:18         PAGE 23


LOC    OBJECT CODE    LINE  SOURCE TEXT
  VALUE

                      01152 ;;; /home/sdcc-builder/build/sdcc-build/orig/sdcc/src/pic14/gen.c:2358:resultRemat *{*
                      01153 ;;; /home/sdcc-builder/build/sdcc-build/orig/sdcc/src/pic14/gen.c:7192:genAssign *{*
                      01154 ;; ***  genAssign  7193
                      01155 ;;      708 register type nRegs=1
                      01156 ;;      line = 7202 result AOP_REG=r0x1055, size=1, left -=-, size=0, right AOP_LIT=0x00, size=1
                      01157 ;; ***  genAssign  7286
                      01158 ;; >>> /home/sdcc-builder/build/sdcc-build/orig/sdcc/src/pic14/gen.c:7298:genAssign
                      01159 ;;      1126 rIdx = r0x1055 
                      01160         .line   82; "gpio.c"    for (i = 0; i < 8; i++)
0005   01??           01161         CLRF    r0x100D
                      01162 ;;; /home/sdcc-builder/build/sdcc-build/orig/sdcc/src/pic14/gen.c:2358:resultRemat *{*
                      01163 ;;; /home/sdcc-builder/build/sdcc-build/orig/sdcc/src/pic14/gen.c:2802:genLabel *{*
                      01164 ;; ***  genLabel  2805
                      01165 ;;; /home/sdcc-builder/build/sdcc-build/orig/sdcc/src/pic14/gen.c:2358:resultRemat *{*
                      01166 ;;; /home/sdcc-builder/build/sdcc-build/orig/sdcc/src/pic14/gen.c:5667:genGenericShift *{*
                      01167 ;; ***  genGenericShift  5670
                      01168 ;;      708 register type nRegs=1
                      01169 ;;      708 register type nRegs=2
                      01170 ;; ***  mov2w  1395  offset=1
                      01171 ;; >>> /home/sdcc-builder/build/sdcc-build/orig/sdcc/src/pic14/gen.c:1398:mov2w
0006                  01172 _00212_DS_:
                      01173         .line   84; "gpio.c"    GPIO_SetPortPinState(port, i, READ_REGISTER_PIN(state, i));
0006   3000           01174         MOVLW   0x00
                      01175 ;; >>> /home/sdcc-builder/build/sdcc-build/orig/sdcc/src/pic14/gen.c:1407:movwf
                      01176 ;;      1126 rIdx = r0x1057 
0007   0??? 0???      01177         BANKSEL r0x100E
0009   00??           01178         MOVWF   r0x100E
                      01179 ;; ***  mov2w  1395  offset=0
                      01180 ;; >>> /home/sdcc-builder/build/sdcc-build/orig/sdcc/src/pic14/gen.c:1398:mov2w
000A   3001           01181         MOVLW   0x01
                      01182 ;; >>> /home/sdcc-builder/build/sdcc-build/orig/sdcc/src/pic14/gen.c:1407:movwf
                      01183 ;;      1126 rIdx = r0x1056 
000B   00??           01184         MOVWF   r0x100F
                      01185 ;; ***  addSign  1087
                      01186 ;;; /home/sdcc-builder/build/sdcc-build/orig/sdcc/src/pic14/genarith.c:1088:addSign *{*
                      01187 ;; ***  mov2w  1395  offset=0
                      01188 ;; >>> /home/sdcc-builder/build/sdcc-build/orig/sdcc/src/pic14/gen.c:1400:mov2w
                      01189 ;;      1126 rIdx = r0x1055 
000C   08??           01190         MOVF    r0x100D,W
                      01191 ;; >>> /home/sdcc-builder/build/sdcc-build/orig/sdcc/src/pic14/gen.c:5741:genGenericShift
000D   3C00           01192         SUBLW   0x00
                      01193 ;; >>> /home/sdcc-builder/build/sdcc-build/orig/sdcc/src/pic14/gen.c:5743:genGenericShift
000E   1903           01194         BTFSC   STATUS,2
                      01195 ;; >>> /home/sdcc-builder/build/sdcc-build/orig/sdcc/src/pic14/gen.c:5744:genGenericShift
                      01196 ;; ***  popGetLabel  key=12, label offset 110
000F   2???           01197         GOTO    _00222_DS_
                      01198 ;;; /home/sdcc-builder/build/sdcc-build/orig/sdcc/src/pic14/gen.c:5618:genMultiAsm *{*
                      01199 ;; ***  genMultiAsm  5619
                      01200 ;; >>> /home/sdcc-builder/build/sdcc-build/orig/sdcc/src/pic14/gen.c:5636:genMultiAsm
                      01201 ;;      1126 rIdx = r0x1056 
0010                  01202 _00221_DS_:
0010   0??? 0???      01203         BANKSEL r0x100F
0012   0D??           01204         RLF     r0x100F,F
gpasm-1.5.0 #1285 (Sep 12 2016) obj\Debug\gpi   7-19-2020  03:04:18         PAGE 24


LOC    OBJECT CODE    LINE  SOURCE TEXT
  VALUE

                      01205 ;; >>> /home/sdcc-builder/build/sdcc-build/orig/sdcc/src/pic14/gen.c:5636:genMultiAsm
                      01206 ;;      1126 rIdx = r0x1057 
0013   0D??           01207         RLF     r0x100E,F
                      01208 ;; >>> /home/sdcc-builder/build/sdcc-build/orig/sdcc/src/pic14/gen.c:5750:genGenericShift
0014   3E01           01209         ADDLW   0x01
                      01210 ;; >>> /home/sdcc-builder/build/sdcc-build/orig/sdcc/src/pic14/gen.c:5751:genGenericShift
0015   1C03           01211         BTFSS   STATUS,0
                      01212 ;; >>> /home/sdcc-builder/build/sdcc-build/orig/sdcc/src/pic14/gen.c:5752:genGenericShift
                      01213 ;; ***  popGetLabel  key=11, label offset 110
0016   2???           01214         GOTO    _00221_DS_
                      01215 ;;; /home/sdcc-builder/build/sdcc-build/orig/sdcc/src/pic14/gen.c:2358:resultRemat *{*
                      01216 ;;; /home/sdcc-builder/build/sdcc-build/orig/sdcc/src/pic14/gen.c:7386:genCast *{*
                      01217 ;; ***  genCast  7387
                      01218 ;;      708 register type nRegs=1
                      01219 ;;      708 register type nRegs=2
                      01220 ;;      line = 7395 result AOP_REG=r0x1058, size=2, left -=-, size=0, right AOP_REG=r0x1054, size=1
                      01221 ;; >>> /home/sdcc-builder/build/sdcc-build/orig/sdcc/src/pic14/gen.c:7582:genCast
                      01222 ;;      1126 rIdx = r0x1054 
                      01223 ;;104   MOVF    r0x100C,W
                      01224 ;; >>> /home/sdcc-builder/build/sdcc-build/orig/sdcc/src/pic14/gen.c:7583:genCast
                      01225 ;;      1126 rIdx = r0x1058 
                      01226 ;; ***  addSign  1087
                      01227 ;;; /home/sdcc-builder/build/sdcc-build/orig/sdcc/src/pic14/genarith.c:1088:addSign *{*
                      01228 ;; >>> /home/sdcc-builder/build/sdcc-build/orig/sdcc/src/pic14/genarith.c:1107:addSign
                      01229 ;;      1126 rIdx = r0x1059 
0017                  01230 _00222_DS_:
0017   0??? 0???      01231         BANKSEL r0x1011
0019   01??           01232         CLRF    r0x1011
                      01233 ;;; /home/sdcc-builder/build/sdcc-build/orig/sdcc/src/pic14/gen.c:2358:resultRemat *{*
                      01234 ;;; /home/sdcc-builder/build/sdcc-build/orig/sdcc/src/pic14/gen.c:4023:genAnd *{*
                      01235 ;; ***  genAnd  4024
                      01236 ;;      708 register type nRegs=2
                      01237 ;;      708 register type nRegs=2
                      01238 ;;      708 register type nRegs=2
                      01239 ;;      line = 4059 result AOP_REG=r0x1056, size=2, left AOP_REG=r0x1056, size=2, right AOP_REG=r0x1058,
                             size=2
                      01240 ;; >>> /home/sdcc-builder/build/sdcc-build/orig/sdcc/src/pic14/gen.c:4241:genAnd
                      01241 ;;      1126 rIdx = r0x1058 
                      01242 ;;103   MOVF    r0x1010,W
001A   08??           01243         MOVF    r0x100C,W
001B   00??           01244         MOVWF   r0x1010
                      01245 ;; >>> /home/sdcc-builder/build/sdcc-build/orig/sdcc/src/pic14/gen.c:4242:genAnd
                      01246 ;;      1126 rIdx = r0x1056 
001C   05??           01247         ANDWF   r0x100F,F
                      01248 ;; >>> /home/sdcc-builder/build/sdcc-build/orig/sdcc/src/pic14/gen.c:4241:genAnd
                      01249 ;;      1126 rIdx = r0x1059 
001D   3000           01250         MOVLW   0x00
                      01251 ;; >>> /home/sdcc-builder/build/sdcc-build/orig/sdcc/src/pic14/gen.c:4242:genAnd
                      01252 ;;      1126 rIdx = r0x1057 
001E   05??           01253         ANDWF   r0x100E,F
                      01254 ;;; /home/sdcc-builder/build/sdcc-build/orig/sdcc/src/pic14/gen.c:2358:resultRemat *{*
                      01255 ;;; /home/sdcc-builder/build/sdcc-build/orig/sdcc/src/pic14/gen.c:5667:genGenericShift *{*
                      01256 ;; ***  genGenericShift  5670
gpasm-1.5.0 #1285 (Sep 12 2016) obj\Debug\gpi   7-19-2020  03:04:18         PAGE 25


LOC    OBJECT CODE    LINE  SOURCE TEXT
  VALUE

                      01257 ;;      708 register type nRegs=1
                      01258 ;;      708 register type nRegs=2
                      01259 ;;      708 register type nRegs=2
                      01260 ;; ***  mov2w  1395  offset=1
                      01261 ;; >>> /home/sdcc-builder/build/sdcc-build/orig/sdcc/src/pic14/gen.c:1400:mov2w
                      01262 ;;      1126 rIdx = r0x1057 
001F   08??           01263         MOVF    r0x100E,W
                      01264 ;; >>> /home/sdcc-builder/build/sdcc-build/orig/sdcc/src/pic14/gen.c:1407:movwf
                      01265 ;;      1126 rIdx = r0x1059 
0020   00??           01266         MOVWF   r0x1011
                      01267 ;; ***  mov2w  1395  offset=0
                      01268 ;; >>> /home/sdcc-builder/build/sdcc-build/orig/sdcc/src/pic14/gen.c:1400:mov2w
                      01269 ;;      1126 rIdx = r0x1056 
0021   08??           01270         MOVF    r0x100F,W
                      01271 ;; >>> /home/sdcc-builder/build/sdcc-build/orig/sdcc/src/pic14/gen.c:1407:movwf
                      01272 ;;      1126 rIdx = r0x1058 
0022   00??           01273         MOVWF   r0x1010
                      01274 ;; ***  addSign  1087
                      01275 ;;; /home/sdcc-builder/build/sdcc-build/orig/sdcc/src/pic14/genarith.c:1088:addSign *{*
                      01276 ;; ***  mov2w  1395  offset=0
                      01277 ;; >>> /home/sdcc-builder/build/sdcc-build/orig/sdcc/src/pic14/gen.c:1400:mov2w
                      01278 ;;      1126 rIdx = r0x1055 
0023   08??           01279         MOVF    r0x100D,W
                      01280 ;; >>> /home/sdcc-builder/build/sdcc-build/orig/sdcc/src/pic14/gen.c:5741:genGenericShift
0024   3C00           01281         SUBLW   0x00
                      01282 ;; >>> /home/sdcc-builder/build/sdcc-build/orig/sdcc/src/pic14/gen.c:5743:genGenericShift
0025   1903           01283         BTFSC   STATUS,2
                      01284 ;; >>> /home/sdcc-builder/build/sdcc-build/orig/sdcc/src/pic14/gen.c:5744:genGenericShift
                      01285 ;; ***  popGetLabel  key=14, label offset 110
0026   2???           01286         GOTO    _00224_DS_
                      01287 ;;; /home/sdcc-builder/build/sdcc-build/orig/sdcc/src/pic14/gen.c:5649:loadSignToC *{*
                      01288 ;; >>> /home/sdcc-builder/build/sdcc-build/orig/sdcc/src/pic14/gen.c:5652:loadSignToC
0027                  01289 _00223_DS_:
0027   1003           01290         BCF     STATUS,0
                      01291 ;; >>> /home/sdcc-builder/build/sdcc-build/orig/sdcc/src/pic14/gen.c:5653:loadSignToC
0028   0??? 0???      01292         BANKSEL r0x1011
002A   1B??           01293         BTFSC   r0x1011,7
                      01294 ;; >>> /home/sdcc-builder/build/sdcc-build/orig/sdcc/src/pic14/gen.c:5654:loadSignToC
002B   1403           01295         BSF     STATUS,0
                      01296 ;;; /home/sdcc-builder/build/sdcc-build/orig/sdcc/src/pic14/gen.c:5618:genMultiAsm *{*
                      01297 ;; ***  genMultiAsm  5619
                      01298 ;; >>> /home/sdcc-builder/build/sdcc-build/orig/sdcc/src/pic14/gen.c:5636:genMultiAsm
                      01299 ;;      1126 rIdx = r0x1059 
002C   0C??           01300         RRF     r0x1011,F
                      01301 ;; >>> /home/sdcc-builder/build/sdcc-build/orig/sdcc/src/pic14/gen.c:5636:genMultiAsm
                      01302 ;;      1126 rIdx = r0x1058 
002D   0C??           01303         RRF     r0x1010,F
                      01304 ;; >>> /home/sdcc-builder/build/sdcc-build/orig/sdcc/src/pic14/gen.c:5750:genGenericShift
002E   3E01           01305         ADDLW   0x01
                      01306 ;; >>> /home/sdcc-builder/build/sdcc-build/orig/sdcc/src/pic14/gen.c:5751:genGenericShift
002F   1C03           01307         BTFSS   STATUS,0
                      01308 ;; >>> /home/sdcc-builder/build/sdcc-build/orig/sdcc/src/pic14/gen.c:5752:genGenericShift
                      01309 ;; ***  popGetLabel  key=13, label offset 110
gpasm-1.5.0 #1285 (Sep 12 2016) obj\Debug\gpi   7-19-2020  03:04:18         PAGE 26


LOC    OBJECT CODE    LINE  SOURCE TEXT
  VALUE

0030   2???           01310         GOTO    _00223_DS_
                      01311 ;;; /home/sdcc-builder/build/sdcc-build/orig/sdcc/src/pic14/gen.c:2358:resultRemat *{*
                      01312 ;;; /home/sdcc-builder/build/sdcc-build/orig/sdcc/src/pic14/gen.c:7386:genCast *{*
                      01313 ;; ***  genCast  7387
                      01314 ;;      708 register type nRegs=2
                      01315 ;;      708 register type nRegs=1
                      01316 ;;      line = 7395 result AOP_REG=r0x1056, size=1, left -=-, size=0, right AOP_REG=r0x1058, size=2
                      01317 ;; ***  genCast  7537
                      01318 ;; >>> /home/sdcc-builder/build/sdcc-build/orig/sdcc/src/pic14/gen.c:7561:genCast
                      01319 ;;      1126 rIdx = r0x1058 
0031                  01320 _00224_DS_:
0031   0??? 0???      01321         BANKSEL r0x1010
0033   08??           01322         MOVF    r0x1010,W
                      01323 ;; >>> /home/sdcc-builder/build/sdcc-build/orig/sdcc/src/pic14/gen.c:7562:genCast
                      01324 ;;      1126 rIdx = r0x1056 
0034   00??           01325         MOVWF   r0x100F
0035   00??           01326         MOVWF   STK01
                      01327 ;;; /home/sdcc-builder/build/sdcc-build/orig/sdcc/src/pic14/gen.c:1357:mov2w_op *{*
                      01328 ;; ***  mov2w  1395  offset=0
                      01329 ;; >>> /home/sdcc-builder/build/sdcc-build/orig/sdcc/src/pic14/gen.c:1400:mov2w
                      01330 ;;      1126 rIdx = r0x1055 
0036   08??           01331         MOVF    r0x100D,W
                      01332 ;;      708 register type nRegs=1
                      01333 ;;      2158 left AOP_REG
                      01334 ;; >>> /home/sdcc-builder/build/sdcc-build/orig/sdcc/src/pic14/gen.c:2166:genCall
                      01335 ;; ***  popRegFromIdx,1059  , rIdx=0x7f
0037   00??           01336         MOVWF   STK00
                      01337 ;;; /home/sdcc-builder/build/sdcc-build/orig/sdcc/src/pic14/gen.c:1357:mov2w_op *{*
                      01338 ;; ***  mov2w  1395  offset=0
                      01339 ;; >>> /home/sdcc-builder/build/sdcc-build/orig/sdcc/src/pic14/gen.c:1400:mov2w
                      01340 ;;      1126 rIdx = r0x1053 
0038   08??           01341         MOVF    r0x100B,W
                      01342 ;; >>> /home/sdcc-builder/build/sdcc-build/orig/sdcc/src/pic14/gen.c:2207:genCall
0039   0??? 0???      01343         PAGESEL _GPIO_SetPortPinState
                      01344 ;; >>> /home/sdcc-builder/build/sdcc-build/orig/sdcc/src/pic14/gen.c:2215:genCall
003B   2???           01345         CALL    _GPIO_SetPortPinState
                      01346 ;; >>> /home/sdcc-builder/build/sdcc-build/orig/sdcc/src/pic14/gen.c:2223:genCall
003C   0??? 0???      01347         PAGESEL $
                      01348 ;;; /home/sdcc-builder/build/sdcc-build/orig/sdcc/src/pic14/gen.c:2358:resultRemat *{*
                      01349 ;; ***  genPlus  707
                      01350 ;;; /home/sdcc-builder/build/sdcc-build/orig/sdcc/src/pic14/genarith.c:708:genPlus *{*
                      01351 ;;      708 register type nRegs=1
                      01352 ;;      589
                      01353 ;;      line = 714 result AOP_REG=r0x1055, size=1, left AOP_REG=r0x1055, size=1, right AOP_LIT=0x01, siz
                            e=1
                      01354 ;;; /home/sdcc-builder/build/sdcc-build/orig/sdcc/src/pic14/genarith.c:159:genPlusIncr *{*
                      01355 ;; ***  genPlusIncr  161
                      01356 ;;      result AOP_REG, left AOP_REG, right AOP_LIT
                      01357 ;;      genPlusIncr  173
                      01358 ;; >>> /home/sdcc-builder/build/sdcc-build/orig/sdcc/src/pic14/genarith.c:185:genPlusIncr
                      01359 ;;      1126 rIdx = r0x1055 
                      01360         .line   82; "gpio.c"    for (i = 0; i < 8; i++)
003E   0??? 0???      01361         BANKSEL r0x100D
gpasm-1.5.0 #1285 (Sep 12 2016) obj\Debug\gpi   7-19-2020  03:04:18         PAGE 27


LOC    OBJECT CODE    LINE  SOURCE TEXT
  VALUE

0040   0A??           01362         INCF    r0x100D,F
                      01363 ;;; /home/sdcc-builder/build/sdcc-build/orig/sdcc/src/pic14/gen.c:2358:resultRemat *{*
                      01364 ;;; /home/sdcc-builder/build/sdcc-build/orig/sdcc/src/pic14/gen.c:3652:genCmpLt *{*
                      01365 ;; ***  genCmpLt  3653
                      01366 ;;      708 register type nRegs=1
                      01367 ;;; /home/sdcc-builder/build/sdcc-build/orig/sdcc/src/pic14/gen.c:3354:genCmp *{*
                      01368 ;;unsigned compare: left < lit(0x8=8), size=1
                      01369 ;; >>> /home/sdcc-builder/build/sdcc-build/orig/sdcc/src/pic14/gen.c:3325:pic14_mov2w_regOrLit
0041   3008           01370         MOVLW   0x08
                      01371 ;; >>> /home/sdcc-builder/build/sdcc-build/orig/sdcc/src/pic14/gen.c:3492:genCmp
                      01372 ;;      1126 rIdx = r0x1055 
0042   02??           01373         SUBWF   r0x100D,W
                      01374 ;;; /home/sdcc-builder/build/sdcc-build/orig/sdcc/src/pic14/gen.c:3297:genSkipc *{*
                      01375 ;; >>> /home/sdcc-builder/build/sdcc-build/orig/sdcc/src/pic14/gen.c:3304:genSkipc
0043   1C03           01376         BTFSS   STATUS,0
                      01377 ;; >>> /home/sdcc-builder/build/sdcc-build/orig/sdcc/src/pic14/gen.c:3306:genSkipc
                      01378 ;; ***  popGetLabel  key=2, label offset 110
0044   2???           01379         GOTO    _00212_DS_
                      01380 ;;genSkipc:3307: created from rifx:00000000047A57B0
                      01381 ;;; /home/sdcc-builder/build/sdcc-build/orig/sdcc/src/pic14/gen.c:2358:resultRemat *{*
                      01382 ;;; /home/sdcc-builder/build/sdcc-build/orig/sdcc/src/pic14/gen.c:2358:resultRemat *{*
                      01383 ;;; /home/sdcc-builder/build/sdcc-build/orig/sdcc/src/pic14/gen.c:2802:genLabel *{*
                      01384 ;; ***  genLabel  2805
                      01385 ;;; /home/sdcc-builder/build/sdcc-build/orig/sdcc/src/pic14/gen.c:2358:resultRemat *{*
                      01386 ;;; /home/sdcc-builder/build/sdcc-build/orig/sdcc/src/pic14/gen.c:2570:genEndFunction *{*
                      01387 ;; ***  genEndFunction  2572
                      01388         .line   86; "gpio.c"    }
0045   0008           01389         RETURN  
                      01390 ; exit point of _GPIO_SetPortState
                      01391 ;;; /home/sdcc-builder/build/sdcc-build/orig/sdcc/src/pic14/gen.c:7710:genpic14Code *{*
                      01392 
                      01393 ;***
                      01394 ;  pBlock Stats: dbName = C
                      01395 ;***
                      01396 ;has an exit
                      01397 ;7 compiler assigned registers:
                      01398 ;   r0x1006
                      01399 ;   STK00
                      01400 ;   r0x1007
                      01401 ;   STK01
                      01402 ;   r0x1008
                      01403 ;   r0x1009
                      01404 ;   r0x100A
                      01405 ;; Starting pCode block
                      01406 ;;; /home/sdcc-builder/build/sdcc-build/orig/sdcc/src/pic14/gen.c:2358:resultRemat *{*
                      01407 ;;; /home/sdcc-builder/build/sdcc-build/orig/sdcc/src/pic14/gen.c:2802:genLabel *{*
                      01408 ;; ***  genLabel  2805
                      01409 ;;; /home/sdcc-builder/build/sdcc-build/orig/sdcc/src/pic14/gen.c:2358:resultRemat *{*
                      01410 ;;; /home/sdcc-builder/build/sdcc-build/orig/sdcc/src/pic14/gen.c:2382:genFunction *{*
                      01411 ;; ***  genFunction  2384 curr label offset=58previous max_key=0 
                      01412 S_gpio__GPIO_SetPortPinState    code
0000                  01413 _GPIO_SetPortPinState:
                      01414 ; 2 exit points
gpasm-1.5.0 #1285 (Sep 12 2016) obj\Debug\gpi   7-19-2020  03:04:18         PAGE 28


LOC    OBJECT CODE    LINE  SOURCE TEXT
  VALUE

                      01415 ;;; /home/sdcc-builder/build/sdcc-build/orig/sdcc/src/pic14/gen.c:2358:resultRemat *{*
                      01416 ;;; /home/sdcc-builder/build/sdcc-build/orig/sdcc/src/pic14/gen.c:7642:genReceive *{*
                      01417 ;; ***  genReceive  7643
                      01418 ;;      708 register type nRegs=1
                      01419 ;;; /home/sdcc-builder/build/sdcc-build/orig/sdcc/src/pic14/gen.c:1929:assignResultValue *{*
                      01420 ;; ***  assignResultValue  1931
                      01421 ;;      line = 1933 result -=-, size=0, left AOP_REG=r0x104D, size=1, right -=-, size=0
                      01422 ;; >>> /home/sdcc-builder/build/sdcc-build/orig/sdcc/src/pic14/gen.c:1407:movwf
                      01423 ;;      1126 rIdx = r0x104D 
                      01424         .line   52; "gpio.c"    void GPIO_SetPortPinState(tPort port, unsigned char pin, unsigned char s
                            tate)
0000   0??? 0???      01425         BANKSEL r0x1006
0002   00??           01426         MOVWF   r0x1006
                      01427 ;;; /home/sdcc-builder/build/sdcc-build/orig/sdcc/src/pic14/gen.c:2358:resultRemat *{*
                      01428 ;;; /home/sdcc-builder/build/sdcc-build/orig/sdcc/src/pic14/gen.c:7642:genReceive *{*
                      01429 ;; ***  genReceive  7643
                      01430 ;;      708 register type nRegs=1
                      01431 ;;; /home/sdcc-builder/build/sdcc-build/orig/sdcc/src/pic14/gen.c:1929:assignResultValue *{*
                      01432 ;; ***  assignResultValue  1931
                      01433 ;;      line = 1933 result -=-, size=0, left AOP_REG=r0x104E, size=1, right -=-, size=0
                      01434 ;; >>> /home/sdcc-builder/build/sdcc-build/orig/sdcc/src/pic14/gen.c:1437:get_returnvalue
                      01435 ;; ***  popRegFromIdx,1059  , rIdx=0x7f
0003   08??           01436         MOVF    STK00,W
                      01437 ;; >>> /home/sdcc-builder/build/sdcc-build/orig/sdcc/src/pic14/gen.c:1407:movwf
                      01438 ;;      1126 rIdx = r0x104E 
0004   00??           01439         MOVWF   r0x1007
                      01440 ;;; /home/sdcc-builder/build/sdcc-build/orig/sdcc/src/pic14/gen.c:2358:resultRemat *{*
                      01441 ;;; /home/sdcc-builder/build/sdcc-build/orig/sdcc/src/pic14/gen.c:7642:genReceive *{*
                      01442 ;; ***  genReceive  7643
                      01443 ;;      708 register type nRegs=1
                      01444 ;;; /home/sdcc-builder/build/sdcc-build/orig/sdcc/src/pic14/gen.c:1929:assignResultValue *{*
                      01445 ;; ***  assignResultValue  1931
                      01446 ;;      line = 1933 result -=-, size=0, left AOP_REG=r0x104F, size=1, right -=-, size=0
                      01447 ;; >>> /home/sdcc-builder/build/sdcc-build/orig/sdcc/src/pic14/gen.c:1437:get_returnvalue
                      01448 ;; ***  popRegFromIdx,1059  , rIdx=0x7e
0005   08??           01449         MOVF    STK01,W
                      01450 ;; >>> /home/sdcc-builder/build/sdcc-build/orig/sdcc/src/pic14/gen.c:1407:movwf
                      01451 ;;      1126 rIdx = r0x104F 
0006   00??           01452         MOVWF   r0x1008
                      01453 ;;; /home/sdcc-builder/build/sdcc-build/orig/sdcc/src/pic14/gen.c:2358:resultRemat *{*
                      01454 ;;; /home/sdcc-builder/build/sdcc-build/orig/sdcc/src/pic14/gen.c:3616:genCmpGt *{*
                      01455 ;; ***  genCmpGt  3617
                      01456 ;;      708 register type nRegs=1
                      01457 ;;; /home/sdcc-builder/build/sdcc-build/orig/sdcc/src/pic14/gen.c:3354:genCmp *{*
                      01458 ;;swapping arguments (AOP_TYPEs 1/2)
                      01459 ;;unsigned compare: left >= lit(0x5=5), size=1
                      01460 ;; >>> /home/sdcc-builder/build/sdcc-build/orig/sdcc/src/pic14/gen.c:3325:pic14_mov2w_regOrLit
                      01461         .line   54; "gpio.c"    switch(port)
0007   3005           01462         MOVLW   0x05
                      01463 ;; >>> /home/sdcc-builder/build/sdcc-build/orig/sdcc/src/pic14/gen.c:3492:genCmp
                      01464 ;;      1126 rIdx = r0x104D 
0008   02??           01465         SUBWF   r0x1006,W
                      01466 ;;; /home/sdcc-builder/build/sdcc-build/orig/sdcc/src/pic14/gen.c:3297:genSkipc *{*
gpasm-1.5.0 #1285 (Sep 12 2016) obj\Debug\gpi   7-19-2020  03:04:18         PAGE 29


LOC    OBJECT CODE    LINE  SOURCE TEXT
  VALUE

                      01467 ;; >>> /home/sdcc-builder/build/sdcc-build/orig/sdcc/src/pic14/gen.c:3302:genSkipc
0009   1803           01468         BTFSC   STATUS,0
                      01469 ;; >>> /home/sdcc-builder/build/sdcc-build/orig/sdcc/src/pic14/gen.c:3306:genSkipc
                      01470 ;; ***  popGetLabel  key=7, label offset 62
000A   2???           01471         GOTO    _00169_DS_
                      01472 ;;genSkipc:3307: created from rifx:00000000047A57B0
                      01473 ;;; /home/sdcc-builder/build/sdcc-build/orig/sdcc/src/pic14/gen.c:2358:resultRemat *{*
                      01474 ;;; /home/sdcc-builder/build/sdcc-build/orig/sdcc/src/pic14/gen.c:2358:resultRemat *{*
                      01475 ;;; /home/sdcc-builder/build/sdcc-build/orig/sdcc/src/pic14/gen.c:7337:genJumpTab *{*
                      01476 ;; ***  genJumpTab  7338
                      01477 ;;      708 register type nRegs=1
                      01478 ;; >>> /home/sdcc-builder/build/sdcc-build/orig/sdcc/src/pic14/gen.c:7353:genJumpTab
                      01479 ;; ***  popGetLabel  key=14, label offset 62
000B   30??           01480         MOVLW   HIGH(_00176_DS_)
                      01481 ;; >>> /home/sdcc-builder/build/sdcc-build/orig/sdcc/src/pic14/gen.c:7354:genJumpTab
000C   1283 1303      01482         BANKSEL PCLATH
000E   008A           01483         MOVWF   PCLATH
                      01484 ;; >>> /home/sdcc-builder/build/sdcc-build/orig/sdcc/src/pic14/gen.c:7355:genJumpTab
                      01485 ;; ***  popGetLabel  key=14, label offset 62
000F   30??           01486         MOVLW   _00176_DS_
                      01487 ;; >>> /home/sdcc-builder/build/sdcc-build/orig/sdcc/src/pic14/gen.c:7356:genJumpTab
                      01488 ;;      1126 rIdx = r0x104D 
0010   0??? 0???      01489         BANKSEL r0x1006
0012   07??           01490         ADDWF   r0x1006,W
                      01491 ;; >>> /home/sdcc-builder/build/sdcc-build/orig/sdcc/src/pic14/gen.c:7357:genJumpTab
0013   1C03           01492         BTFSS   STATUS,0
0014   2???           01493         GOTO    _00002_DS_
                      01494 ;; >>> /home/sdcc-builder/build/sdcc-build/orig/sdcc/src/pic14/gen.c:7358:genJumpTab
0015   1283 1303      01495         BANKSEL PCLATH
0017   0A8A           01496         INCF    PCLATH,F
                      01497 ;; >>> /home/sdcc-builder/build/sdcc-build/orig/sdcc/src/pic14/gen.c:7359:genJumpTab
0018                  01498 _00002_DS_:
0018   0082           01499         MOVWF   PCL
                      01500 ;; >>> /home/sdcc-builder/build/sdcc-build/orig/sdcc/src/pic14/gen.c:7368:genJumpTab
                      01501 ;; ***  popGetLabel  key=1, label offset 62
0019                  01502 _00176_DS_:
0019   2???           01503         GOTO    _00163_DS_
                      01504 ;; >>> /home/sdcc-builder/build/sdcc-build/orig/sdcc/src/pic14/gen.c:7368:genJumpTab
                      01505 ;; ***  popGetLabel  key=2, label offset 62
001A   2???           01506         GOTO    _00164_DS_
                      01507 ;; >>> /home/sdcc-builder/build/sdcc-build/orig/sdcc/src/pic14/gen.c:7368:genJumpTab
                      01508 ;; ***  popGetLabel  key=3, label offset 62
001B   2???           01509         GOTO    _00165_DS_
                      01510 ;; >>> /home/sdcc-builder/build/sdcc-build/orig/sdcc/src/pic14/gen.c:7368:genJumpTab
                      01511 ;; ***  popGetLabel  key=4, label offset 62
001C   2???           01512         GOTO    _00166_DS_
                      01513 ;; >>> /home/sdcc-builder/build/sdcc-build/orig/sdcc/src/pic14/gen.c:7368:genJumpTab
                      01514 ;; ***  popGetLabel  key=5, label offset 62
001D   2???           01515         GOTO    _00167_DS_
                      01516 ;;; /home/sdcc-builder/build/sdcc-build/orig/sdcc/src/pic14/gen.c:2358:resultRemat *{*
                      01517 ;;; /home/sdcc-builder/build/sdcc-build/orig/sdcc/src/pic14/gen.c:2802:genLabel *{*
                      01518 ;; ***  genLabel  2805
                      01519 ;;; /home/sdcc-builder/build/sdcc-build/orig/sdcc/src/pic14/gen.c:2358:resultRemat *{*
gpasm-1.5.0 #1285 (Sep 12 2016) obj\Debug\gpi   7-19-2020  03:04:18         PAGE 30


LOC    OBJECT CODE    LINE  SOURCE TEXT
  VALUE

                      01520 ;;; /home/sdcc-builder/build/sdcc-build/orig/sdcc/src/pic14/gen.c:7386:genCast *{*
                      01521 ;; ***  genCast  7387
                      01522 ;;      708 register type nRegs=1
                      01523 ;;      708 register type nRegs=1
                      01524 ;;      line = 7395 result AOP_REG=r0x104D, size=1, left -=-, size=0, right AOP_REG=r0x104E, size=1
                      01525 ;; ***  genCast  7537
                      01526 ;; >>> /home/sdcc-builder/build/sdcc-build/orig/sdcc/src/pic14/gen.c:7561:genCast
                      01527 ;;      1126 rIdx = r0x104E 
001E                  01528 _00163_DS_:
                      01529         .line   57; "gpio.c"    SET_REGISTER_PIN(PORTA, pin, state);
001E   0??? 0???      01530         BANKSEL r0x1007
                      01531 ;;120   MOVF    r0x1007,W
                      01532 ;; >>> /home/sdcc-builder/build/sdcc-build/orig/sdcc/src/pic14/gen.c:7562:genCast
                      01533 ;;      1126 rIdx = r0x104D 
                      01534 ;;; /home/sdcc-builder/build/sdcc-build/orig/sdcc/src/pic14/gen.c:2358:resultRemat *{*
                      01535 ;;; /home/sdcc-builder/build/sdcc-build/orig/sdcc/src/pic14/gen.c:5667:genGenericShift *{*
                      01536 ;; ***  genGenericShift  5670
                      01537 ;;      708 register type nRegs=1
                      01538 ;;      708 register type nRegs=1
                      01539 ;; ***  mov2w  1395  offset=0
                      01540 ;; >>> /home/sdcc-builder/build/sdcc-build/orig/sdcc/src/pic14/gen.c:1398:mov2w
0020   3001           01541         MOVLW   0x01
                      01542 ;; >>> /home/sdcc-builder/build/sdcc-build/orig/sdcc/src/pic14/gen.c:1407:movwf
                      01543 ;;      1126 rIdx = r0x1050 
0021   00??           01544         MOVWF   r0x1009
                      01545 ;; ***  addSign  1087
                      01546 ;;; /home/sdcc-builder/build/sdcc-build/orig/sdcc/src/pic14/genarith.c:1088:addSign *{*
                      01547 ;; ***  mov2w  1395  offset=0
                      01548 ;; >>> /home/sdcc-builder/build/sdcc-build/orig/sdcc/src/pic14/gen.c:1400:mov2w
                      01549 ;;      1126 rIdx = r0x104D 
                      01550 ;;119   MOVF    r0x1006,W
0022   08??           01551         MOVF    r0x1007,W
0023   00??           01552         MOVWF   r0x1006
                      01553 ;; >>> /home/sdcc-builder/build/sdcc-build/orig/sdcc/src/pic14/gen.c:5738:genGenericShift
0024   1B??           01554         BTFSC   r0x1006,7
                      01555 ;; >>> /home/sdcc-builder/build/sdcc-build/orig/sdcc/src/pic14/gen.c:5739:genGenericShift
                      01556 ;; ***  popGetLabel  key=17, label offset 62
0025   2???           01557         GOTO    _00180_DS_
                      01558 ;; >>> /home/sdcc-builder/build/sdcc-build/orig/sdcc/src/pic14/gen.c:5741:genGenericShift
0026   3C00           01559         SUBLW   0x00
                      01560 ;; >>> /home/sdcc-builder/build/sdcc-build/orig/sdcc/src/pic14/gen.c:5743:genGenericShift
0027   1903           01561         BTFSC   STATUS,2
                      01562 ;; >>> /home/sdcc-builder/build/sdcc-build/orig/sdcc/src/pic14/gen.c:5744:genGenericShift
                      01563 ;; ***  popGetLabel  key=16, label offset 62
0028   2???           01564         GOTO    _00178_DS_
                      01565 ;;; /home/sdcc-builder/build/sdcc-build/orig/sdcc/src/pic14/gen.c:5618:genMultiAsm *{*
                      01566 ;; ***  genMultiAsm  5619
                      01567 ;; >>> /home/sdcc-builder/build/sdcc-build/orig/sdcc/src/pic14/gen.c:5636:genMultiAsm
                      01568 ;;      1126 rIdx = r0x1050 
0029                  01569 _00177_DS_:
0029   0??? 0???      01570         BANKSEL r0x1009
002B   0D??           01571         RLF     r0x1009,F
                      01572 ;; >>> /home/sdcc-builder/build/sdcc-build/orig/sdcc/src/pic14/gen.c:5750:genGenericShift
gpasm-1.5.0 #1285 (Sep 12 2016) obj\Debug\gpi   7-19-2020  03:04:18         PAGE 31


LOC    OBJECT CODE    LINE  SOURCE TEXT
  VALUE

002C   3E01           01573         ADDLW   0x01
                      01574 ;; >>> /home/sdcc-builder/build/sdcc-build/orig/sdcc/src/pic14/gen.c:5751:genGenericShift
002D   1C03           01575         BTFSS   STATUS,0
                      01576 ;; >>> /home/sdcc-builder/build/sdcc-build/orig/sdcc/src/pic14/gen.c:5752:genGenericShift
                      01577 ;; ***  popGetLabel  key=15, label offset 62
002E   2???           01578         GOTO    _00177_DS_
                      01579 ;; >>> /home/sdcc-builder/build/sdcc-build/orig/sdcc/src/pic14/gen.c:5761:genGenericShift
                      01580 ;; ***  popGetLabel  key=16, label offset 62
002F   2???           01581         GOTO    _00178_DS_
                      01582 ;;; /home/sdcc-builder/build/sdcc-build/orig/sdcc/src/pic14/gen.c:5649:loadSignToC *{*
                      01583 ;; >>> /home/sdcc-builder/build/sdcc-build/orig/sdcc/src/pic14/gen.c:5652:loadSignToC
0030                  01584 _00180_DS_:
0030   1003           01585         BCF     STATUS,0
                      01586 ;; >>> /home/sdcc-builder/build/sdcc-build/orig/sdcc/src/pic14/gen.c:5653:loadSignToC
0031   0??? 0???      01587         BANKSEL r0x1009
0033   1B??           01588         BTFSC   r0x1009,7
                      01589 ;; >>> /home/sdcc-builder/build/sdcc-build/orig/sdcc/src/pic14/gen.c:5654:loadSignToC
0034   1403           01590         BSF     STATUS,0
                      01591 ;;; /home/sdcc-builder/build/sdcc-build/orig/sdcc/src/pic14/gen.c:5618:genMultiAsm *{*
                      01592 ;; ***  genMultiAsm  5619
                      01593 ;; >>> /home/sdcc-builder/build/sdcc-build/orig/sdcc/src/pic14/gen.c:5636:genMultiAsm
                      01594 ;;      1126 rIdx = r0x1050 
0035   0C??           01595         RRF     r0x1009,F
                      01596 ;; >>> /home/sdcc-builder/build/sdcc-build/orig/sdcc/src/pic14/gen.c:5772:genGenericShift
0036   3E01           01597         ADDLW   0x01
                      01598 ;; >>> /home/sdcc-builder/build/sdcc-build/orig/sdcc/src/pic14/gen.c:5773:genGenericShift
0037   1C03           01599         BTFSS   STATUS,0
                      01600 ;; >>> /home/sdcc-builder/build/sdcc-build/orig/sdcc/src/pic14/gen.c:5774:genGenericShift
                      01601 ;; ***  popGetLabel  key=18, label offset 62
0038   2???           01602         GOTO    _00180_DS_
                      01603 ;;; /home/sdcc-builder/build/sdcc-build/orig/sdcc/src/pic14/gen.c:2358:resultRemat *{*
                      01604 ;;; /home/sdcc-builder/build/sdcc-build/orig/sdcc/src/pic14/gen.c:1609:genCpl *{*
                      01605 ;; ***  genCpl  1611
                      01606 ;;      708 register type nRegs=1
                      01607 ;;      708 register type nRegs=1
                      01608 ;; >>> /home/sdcc-builder/build/sdcc-build/orig/sdcc/src/pic14/gen.c:1631:genCpl
                      01609 ;;      1126 rIdx = r0x1050 
0039                  01610 _00178_DS_:
0039   0??? 0???      01611         BANKSEL r0x1009
003B   09??           01612         COMF    r0x1009,W
                      01613 ;; >>> /home/sdcc-builder/build/sdcc-build/orig/sdcc/src/pic14/gen.c:1632:genCpl
                      01614 ;;      1126 rIdx = r0x104D 
003C   00??           01615         MOVWF   r0x1006
                      01616 ;; ***  addSign  1087
                      01617 ;;; /home/sdcc-builder/build/sdcc-build/orig/sdcc/src/pic14/genarith.c:1088:addSign *{*
                      01618 ;;; /home/sdcc-builder/build/sdcc-build/orig/sdcc/src/pic14/gen.c:2358:resultRemat *{*
                      01619 ;;; /home/sdcc-builder/build/sdcc-build/orig/sdcc/src/pic14/gen.c:7386:genCast *{*
                      01620 ;; ***  genCast  7387
                      01621 ;; ***  aopForSym 324
                      01622 ;;      336 sym->rname = _PORTA, size = 1
                      01623 ;;      708 register type nRegs=1
                      01624 ;;      line = 7395 result AOP_REG=r0x1050, size=1, left -=-, size=0, right AOP_DIR=_PORTA, size=1
                      01625 ;; ***  genCast  7537
gpasm-1.5.0 #1285 (Sep 12 2016) obj\Debug\gpi   7-19-2020  03:04:18         PAGE 32


LOC    OBJECT CODE    LINE  SOURCE TEXT
  VALUE

                      01626 ;; >>> /home/sdcc-builder/build/sdcc-build/orig/sdcc/src/pic14/gen.c:7561:genCast
                      01627 ;;      1027
                      01628 ;;      1041  _PORTA   offset=0 - had to alloc by reg name
003D   0??? 0???      01629         BANKSEL _PORTA
003F   08??           01630         MOVF    _PORTA,W
                      01631 ;; >>> /home/sdcc-builder/build/sdcc-build/orig/sdcc/src/pic14/gen.c:7562:genCast
                      01632 ;;      1126 rIdx = r0x1050 
0040   0??? 0???      01633         BANKSEL r0x1009
0042   00??           01634         MOVWF   r0x1009
0043   05??           01635         ANDWF   r0x1006,F
                      01636 ;;; /home/sdcc-builder/build/sdcc-build/orig/sdcc/src/pic14/gen.c:2358:resultRemat *{*
                      01637 ;;; /home/sdcc-builder/build/sdcc-build/orig/sdcc/src/pic14/gen.c:5667:genGenericShift *{*
                      01638 ;; ***  genGenericShift  5670
                      01639 ;;      708 register type nRegs=1
                      01640 ;;      708 register type nRegs=1
                      01641 ;;      708 register type nRegs=1
                      01642 ;; ***  mov2w  1395  offset=0
                      01643 ;; >>> /home/sdcc-builder/build/sdcc-build/orig/sdcc/src/pic14/gen.c:1400:mov2w
                      01644 ;;      1126 rIdx = r0x104F 
0044   08??           01645         MOVF    r0x1008,W
                      01646 ;; >>> /home/sdcc-builder/build/sdcc-build/orig/sdcc/src/pic14/gen.c:1407:movwf
                      01647 ;;      1126 rIdx = r0x1050 
0045   00??           01648         MOVWF   r0x1009
                      01649 ;; ***  addSign  1087
                      01650 ;;; /home/sdcc-builder/build/sdcc-build/orig/sdcc/src/pic14/genarith.c:1088:addSign *{*
                      01651 ;; ***  mov2w  1395  offset=0
                      01652 ;; >>> /home/sdcc-builder/build/sdcc-build/orig/sdcc/src/pic14/gen.c:1400:mov2w
                      01653 ;;      1126 rIdx = r0x104E 
0046   08??           01654         MOVF    r0x1007,W
                      01655 ;; >>> /home/sdcc-builder/build/sdcc-build/orig/sdcc/src/pic14/gen.c:5741:genGenericShift
0047   3C00           01656         SUBLW   0x00
                      01657 ;; >>> /home/sdcc-builder/build/sdcc-build/orig/sdcc/src/pic14/gen.c:5743:genGenericShift
0048   1903           01658         BTFSC   STATUS,2
                      01659 ;; >>> /home/sdcc-builder/build/sdcc-build/orig/sdcc/src/pic14/gen.c:5744:genGenericShift
                      01660 ;; ***  popGetLabel  key=20, label offset 62
0049   2???           01661         GOTO    _00182_DS_
                      01662 ;;; /home/sdcc-builder/build/sdcc-build/orig/sdcc/src/pic14/gen.c:5618:genMultiAsm *{*
                      01663 ;; ***  genMultiAsm  5619
                      01664 ;; >>> /home/sdcc-builder/build/sdcc-build/orig/sdcc/src/pic14/gen.c:5636:genMultiAsm
                      01665 ;;      1126 rIdx = r0x1050 
004A                  01666 _00181_DS_:
004A   0??? 0???      01667         BANKSEL r0x1009
004C   0D??           01668         RLF     r0x1009,F
                      01669 ;; >>> /home/sdcc-builder/build/sdcc-build/orig/sdcc/src/pic14/gen.c:5750:genGenericShift
004D   3E01           01670         ADDLW   0x01
                      01671 ;; >>> /home/sdcc-builder/build/sdcc-build/orig/sdcc/src/pic14/gen.c:5751:genGenericShift
004E   1C03           01672         BTFSS   STATUS,0
                      01673 ;; >>> /home/sdcc-builder/build/sdcc-build/orig/sdcc/src/pic14/gen.c:5752:genGenericShift
                      01674 ;; ***  popGetLabel  key=19, label offset 62
004F   2???           01675         GOTO    _00181_DS_
                      01676 ;;; /home/sdcc-builder/build/sdcc-build/orig/sdcc/src/pic14/gen.c:2358:resultRemat *{*
                      01677 ;;; /home/sdcc-builder/build/sdcc-build/orig/sdcc/src/pic14/gen.c:7386:genCast *{*
                      01678 ;; ***  genCast  7387
gpasm-1.5.0 #1285 (Sep 12 2016) obj\Debug\gpi   7-19-2020  03:04:18         PAGE 33


LOC    OBJECT CODE    LINE  SOURCE TEXT
  VALUE

                      01679 ;;      708 register type nRegs=1
                      01680 ;;      708 register type nRegs=1
                      01681 ;;      line = 7395 result AOP_REG=r0x1051, size=1, left -=-, size=0, right AOP_REG=r0x1050, size=1
                      01682 ;; ***  genCast  7537
                      01683 ;; >>> /home/sdcc-builder/build/sdcc-build/orig/sdcc/src/pic14/gen.c:7561:genCast
                      01684 ;;      1126 rIdx = r0x1050 
0050                  01685 _00182_DS_:
0050   0??? 0???      01686         BANKSEL r0x1009
0052   08??           01687         MOVF    r0x1009,W
                      01688 ;; >>> /home/sdcc-builder/build/sdcc-build/orig/sdcc/src/pic14/gen.c:7562:genCast
                      01689 ;;      1126 rIdx = r0x1051 
0053   00??           01690         MOVWF   r0x100A
0054   04??           01691         IORWF   r0x1006,W
                      01692 ;; >>> /home/sdcc-builder/build/sdcc-build/orig/sdcc/src/pic14/gen.c:4585:genOr
                      01693 ;;      1027
                      01694 ;;      1045  _PORTA   offset=0
0055   0??? 0???      01695         BANKSEL _PORTA
0057   00??           01696         MOVWF   _PORTA
                      01697 ;;; /home/sdcc-builder/build/sdcc-build/orig/sdcc/src/pic14/gen.c:2358:resultRemat *{*
                      01698 ;;; /home/sdcc-builder/build/sdcc-build/orig/sdcc/src/pic14/gen.c:2820:genGoto *{*
                      01699 ;; >>> /home/sdcc-builder/build/sdcc-build/orig/sdcc/src/pic14/gen.c:2822:genGoto
                      01700 ;; ***  popGetLabel  key=7, label offset 62
                      01701         .line   58; "gpio.c"    break;
0058   2???           01702         GOTO    _00169_DS_
                      01703 ;;; /home/sdcc-builder/build/sdcc-build/orig/sdcc/src/pic14/gen.c:2358:resultRemat *{*
                      01704 ;;; /home/sdcc-builder/build/sdcc-build/orig/sdcc/src/pic14/gen.c:2802:genLabel *{*
                      01705 ;; ***  genLabel  2805
                      01706 ;;; /home/sdcc-builder/build/sdcc-build/orig/sdcc/src/pic14/gen.c:2358:resultRemat *{*
                      01707 ;;; /home/sdcc-builder/build/sdcc-build/orig/sdcc/src/pic14/gen.c:7386:genCast *{*
                      01708 ;; ***  genCast  7387
                      01709 ;;      708 register type nRegs=1
                      01710 ;;      708 register type nRegs=1
                      01711 ;;      line = 7395 result AOP_REG=r0x104D, size=1, left -=-, size=0, right AOP_REG=r0x104E, size=1
                      01712 ;; ***  genCast  7537
                      01713 ;; >>> /home/sdcc-builder/build/sdcc-build/orig/sdcc/src/pic14/gen.c:7561:genCast
                      01714 ;;      1126 rIdx = r0x104E 
                      01715 ;;116   MOVF    r0x1007,W
                      01716 ;; >>> /home/sdcc-builder/build/sdcc-build/orig/sdcc/src/pic14/gen.c:7562:genCast
                      01717 ;;      1126 rIdx = r0x104D 
                      01718 ;;; /home/sdcc-builder/build/sdcc-build/orig/sdcc/src/pic14/gen.c:2358:resultRemat *{*
                      01719 ;;; /home/sdcc-builder/build/sdcc-build/orig/sdcc/src/pic14/gen.c:5667:genGenericShift *{*
                      01720 ;; ***  genGenericShift  5670
                      01721 ;;      708 register type nRegs=1
                      01722 ;;      708 register type nRegs=1
                      01723 ;; ***  mov2w  1395  offset=0
                      01724 ;; >>> /home/sdcc-builder/build/sdcc-build/orig/sdcc/src/pic14/gen.c:1398:mov2w
0059                  01725 _00164_DS_:
                      01726         .line   61; "gpio.c"    SET_REGISTER_PIN(PORTB, pin, state);
0059   3001           01727         MOVLW   0x01
                      01728 ;; >>> /home/sdcc-builder/build/sdcc-build/orig/sdcc/src/pic14/gen.c:1407:movwf
                      01729 ;;      1126 rIdx = r0x1050 
005A   0??? 0???      01730         BANKSEL r0x1009
005C   00??           01731         MOVWF   r0x1009
gpasm-1.5.0 #1285 (Sep 12 2016) obj\Debug\gpi   7-19-2020  03:04:18         PAGE 34


LOC    OBJECT CODE    LINE  SOURCE TEXT
  VALUE

                      01732 ;; ***  addSign  1087
                      01733 ;;; /home/sdcc-builder/build/sdcc-build/orig/sdcc/src/pic14/genarith.c:1088:addSign *{*
                      01734 ;; ***  mov2w  1395  offset=0
                      01735 ;; >>> /home/sdcc-builder/build/sdcc-build/orig/sdcc/src/pic14/gen.c:1400:mov2w
                      01736 ;;      1126 rIdx = r0x104D 
                      01737 ;;115   MOVF    r0x1006,W
005D   08??           01738         MOVF    r0x1007,W
005E   00??           01739         MOVWF   r0x1006
                      01740 ;; >>> /home/sdcc-builder/build/sdcc-build/orig/sdcc/src/pic14/gen.c:5738:genGenericShift
005F   1B??           01741         BTFSC   r0x1006,7
                      01742 ;; >>> /home/sdcc-builder/build/sdcc-build/orig/sdcc/src/pic14/gen.c:5739:genGenericShift
                      01743 ;; ***  popGetLabel  key=23, label offset 62
0060   2???           01744         GOTO    _00186_DS_
                      01745 ;; >>> /home/sdcc-builder/build/sdcc-build/orig/sdcc/src/pic14/gen.c:5741:genGenericShift
0061   3C00           01746         SUBLW   0x00
                      01747 ;; >>> /home/sdcc-builder/build/sdcc-build/orig/sdcc/src/pic14/gen.c:5743:genGenericShift
0062   1903           01748         BTFSC   STATUS,2
                      01749 ;; >>> /home/sdcc-builder/build/sdcc-build/orig/sdcc/src/pic14/gen.c:5744:genGenericShift
                      01750 ;; ***  popGetLabel  key=22, label offset 62
0063   2???           01751         GOTO    _00184_DS_
                      01752 ;;; /home/sdcc-builder/build/sdcc-build/orig/sdcc/src/pic14/gen.c:5618:genMultiAsm *{*
                      01753 ;; ***  genMultiAsm  5619
                      01754 ;; >>> /home/sdcc-builder/build/sdcc-build/orig/sdcc/src/pic14/gen.c:5636:genMultiAsm
                      01755 ;;      1126 rIdx = r0x1050 
0064                  01756 _00183_DS_:
0064   0??? 0???      01757         BANKSEL r0x1009
0066   0D??           01758         RLF     r0x1009,F
                      01759 ;; >>> /home/sdcc-builder/build/sdcc-build/orig/sdcc/src/pic14/gen.c:5750:genGenericShift
0067   3E01           01760         ADDLW   0x01
                      01761 ;; >>> /home/sdcc-builder/build/sdcc-build/orig/sdcc/src/pic14/gen.c:5751:genGenericShift
0068   1C03           01762         BTFSS   STATUS,0
                      01763 ;; >>> /home/sdcc-builder/build/sdcc-build/orig/sdcc/src/pic14/gen.c:5752:genGenericShift
                      01764 ;; ***  popGetLabel  key=21, label offset 62
0069   2???           01765         GOTO    _00183_DS_
                      01766 ;; >>> /home/sdcc-builder/build/sdcc-build/orig/sdcc/src/pic14/gen.c:5761:genGenericShift
                      01767 ;; ***  popGetLabel  key=22, label offset 62
006A   2???           01768         GOTO    _00184_DS_
                      01769 ;;; /home/sdcc-builder/build/sdcc-build/orig/sdcc/src/pic14/gen.c:5649:loadSignToC *{*
                      01770 ;; >>> /home/sdcc-builder/build/sdcc-build/orig/sdcc/src/pic14/gen.c:5652:loadSignToC
006B                  01771 _00186_DS_:
006B   1003           01772         BCF     STATUS,0
                      01773 ;; >>> /home/sdcc-builder/build/sdcc-build/orig/sdcc/src/pic14/gen.c:5653:loadSignToC
006C   0??? 0???      01774         BANKSEL r0x1009
006E   1B??           01775         BTFSC   r0x1009,7
                      01776 ;; >>> /home/sdcc-builder/build/sdcc-build/orig/sdcc/src/pic14/gen.c:5654:loadSignToC
006F   1403           01777         BSF     STATUS,0
                      01778 ;;; /home/sdcc-builder/build/sdcc-build/orig/sdcc/src/pic14/gen.c:5618:genMultiAsm *{*
                      01779 ;; ***  genMultiAsm  5619
                      01780 ;; >>> /home/sdcc-builder/build/sdcc-build/orig/sdcc/src/pic14/gen.c:5636:genMultiAsm
                      01781 ;;      1126 rIdx = r0x1050 
0070   0C??           01782         RRF     r0x1009,F
                      01783 ;; >>> /home/sdcc-builder/build/sdcc-build/orig/sdcc/src/pic14/gen.c:5772:genGenericShift
0071   3E01           01784         ADDLW   0x01
gpasm-1.5.0 #1285 (Sep 12 2016) obj\Debug\gpi   7-19-2020  03:04:18         PAGE 35


LOC    OBJECT CODE    LINE  SOURCE TEXT
  VALUE

                      01785 ;; >>> /home/sdcc-builder/build/sdcc-build/orig/sdcc/src/pic14/gen.c:5773:genGenericShift
0072   1C03           01786         BTFSS   STATUS,0
                      01787 ;; >>> /home/sdcc-builder/build/sdcc-build/orig/sdcc/src/pic14/gen.c:5774:genGenericShift
                      01788 ;; ***  popGetLabel  key=24, label offset 62
0073   2???           01789         GOTO    _00186_DS_
                      01790 ;;; /home/sdcc-builder/build/sdcc-build/orig/sdcc/src/pic14/gen.c:2358:resultRemat *{*
                      01791 ;;; /home/sdcc-builder/build/sdcc-build/orig/sdcc/src/pic14/gen.c:1609:genCpl *{*
                      01792 ;; ***  genCpl  1611
                      01793 ;;      708 register type nRegs=1
                      01794 ;;      708 register type nRegs=1
                      01795 ;; >>> /home/sdcc-builder/build/sdcc-build/orig/sdcc/src/pic14/gen.c:1631:genCpl
                      01796 ;;      1126 rIdx = r0x1050 
0074                  01797 _00184_DS_:
0074   0??? 0???      01798         BANKSEL r0x1009
0076   09??           01799         COMF    r0x1009,W
                      01800 ;; >>> /home/sdcc-builder/build/sdcc-build/orig/sdcc/src/pic14/gen.c:1632:genCpl
                      01801 ;;      1126 rIdx = r0x104D 
0077   00??           01802         MOVWF   r0x1006
                      01803 ;; ***  addSign  1087
                      01804 ;;; /home/sdcc-builder/build/sdcc-build/orig/sdcc/src/pic14/genarith.c:1088:addSign *{*
                      01805 ;;; /home/sdcc-builder/build/sdcc-build/orig/sdcc/src/pic14/gen.c:2358:resultRemat *{*
                      01806 ;;; /home/sdcc-builder/build/sdcc-build/orig/sdcc/src/pic14/gen.c:7386:genCast *{*
                      01807 ;; ***  genCast  7387
                      01808 ;; ***  aopForSym 324
                      01809 ;;      336 sym->rname = _PORTB, size = 1
                      01810 ;;      708 register type nRegs=1
                      01811 ;;      line = 7395 result AOP_REG=r0x1050, size=1, left -=-, size=0, right AOP_DIR=_PORTB, size=1
                      01812 ;; ***  genCast  7537
                      01813 ;; >>> /home/sdcc-builder/build/sdcc-build/orig/sdcc/src/pic14/gen.c:7561:genCast
                      01814 ;;      1027
                      01815 ;;      1045  _PORTB   offset=0
0078   0??? 0???      01816         BANKSEL _PORTB
007A   08??           01817         MOVF    _PORTB,W
                      01818 ;; >>> /home/sdcc-builder/build/sdcc-build/orig/sdcc/src/pic14/gen.c:7562:genCast
                      01819 ;;      1126 rIdx = r0x1050 
007B   0??? 0???      01820         BANKSEL r0x1009
007D   00??           01821         MOVWF   r0x1009
007E   05??           01822         ANDWF   r0x1006,F
                      01823 ;;; /home/sdcc-builder/build/sdcc-build/orig/sdcc/src/pic14/gen.c:2358:resultRemat *{*
                      01824 ;;; /home/sdcc-builder/build/sdcc-build/orig/sdcc/src/pic14/gen.c:5667:genGenericShift *{*
                      01825 ;; ***  genGenericShift  5670
                      01826 ;;      708 register type nRegs=1
                      01827 ;;      708 register type nRegs=1
                      01828 ;;      708 register type nRegs=1
                      01829 ;; ***  mov2w  1395  offset=0
                      01830 ;; >>> /home/sdcc-builder/build/sdcc-build/orig/sdcc/src/pic14/gen.c:1400:mov2w
                      01831 ;;      1126 rIdx = r0x104F 
007F   08??           01832         MOVF    r0x1008,W
                      01833 ;; >>> /home/sdcc-builder/build/sdcc-build/orig/sdcc/src/pic14/gen.c:1407:movwf
                      01834 ;;      1126 rIdx = r0x1050 
0080   00??           01835         MOVWF   r0x1009
                      01836 ;; ***  addSign  1087
                      01837 ;;; /home/sdcc-builder/build/sdcc-build/orig/sdcc/src/pic14/genarith.c:1088:addSign *{*
gpasm-1.5.0 #1285 (Sep 12 2016) obj\Debug\gpi   7-19-2020  03:04:18         PAGE 36


LOC    OBJECT CODE    LINE  SOURCE TEXT
  VALUE

                      01838 ;; ***  mov2w  1395  offset=0
                      01839 ;; >>> /home/sdcc-builder/build/sdcc-build/orig/sdcc/src/pic14/gen.c:1400:mov2w
                      01840 ;;      1126 rIdx = r0x104E 
0081   08??           01841         MOVF    r0x1007,W
                      01842 ;; >>> /home/sdcc-builder/build/sdcc-build/orig/sdcc/src/pic14/gen.c:5741:genGenericShift
0082   3C00           01843         SUBLW   0x00
                      01844 ;; >>> /home/sdcc-builder/build/sdcc-build/orig/sdcc/src/pic14/gen.c:5743:genGenericShift
0083   1903           01845         BTFSC   STATUS,2
                      01846 ;; >>> /home/sdcc-builder/build/sdcc-build/orig/sdcc/src/pic14/gen.c:5744:genGenericShift
                      01847 ;; ***  popGetLabel  key=26, label offset 62
0084   2???           01848         GOTO    _00188_DS_
                      01849 ;;; /home/sdcc-builder/build/sdcc-build/orig/sdcc/src/pic14/gen.c:5618:genMultiAsm *{*
                      01850 ;; ***  genMultiAsm  5619
                      01851 ;; >>> /home/sdcc-builder/build/sdcc-build/orig/sdcc/src/pic14/gen.c:5636:genMultiAsm
                      01852 ;;      1126 rIdx = r0x1050 
0085                  01853 _00187_DS_:
0085   0??? 0???      01854         BANKSEL r0x1009
0087   0D??           01855         RLF     r0x1009,F
                      01856 ;; >>> /home/sdcc-builder/build/sdcc-build/orig/sdcc/src/pic14/gen.c:5750:genGenericShift
0088   3E01           01857         ADDLW   0x01
                      01858 ;; >>> /home/sdcc-builder/build/sdcc-build/orig/sdcc/src/pic14/gen.c:5751:genGenericShift
0089   1C03           01859         BTFSS   STATUS,0
                      01860 ;; >>> /home/sdcc-builder/build/sdcc-build/orig/sdcc/src/pic14/gen.c:5752:genGenericShift
                      01861 ;; ***  popGetLabel  key=25, label offset 62
008A   2???           01862         GOTO    _00187_DS_
                      01863 ;;; /home/sdcc-builder/build/sdcc-build/orig/sdcc/src/pic14/gen.c:2358:resultRemat *{*
                      01864 ;;; /home/sdcc-builder/build/sdcc-build/orig/sdcc/src/pic14/gen.c:7386:genCast *{*
                      01865 ;; ***  genCast  7387
                      01866 ;;      708 register type nRegs=1
                      01867 ;;      708 register type nRegs=1
                      01868 ;;      line = 7395 result AOP_REG=r0x1051, size=1, left -=-, size=0, right AOP_REG=r0x1050, size=1
                      01869 ;; ***  genCast  7537
                      01870 ;; >>> /home/sdcc-builder/build/sdcc-build/orig/sdcc/src/pic14/gen.c:7561:genCast
                      01871 ;;      1126 rIdx = r0x1050 
008B                  01872 _00188_DS_:
008B   0??? 0???      01873         BANKSEL r0x1009
008D   08??           01874         MOVF    r0x1009,W
                      01875 ;; >>> /home/sdcc-builder/build/sdcc-build/orig/sdcc/src/pic14/gen.c:7562:genCast
                      01876 ;;      1126 rIdx = r0x1051 
008E   00??           01877         MOVWF   r0x100A
008F   04??           01878         IORWF   r0x1006,W
                      01879 ;; >>> /home/sdcc-builder/build/sdcc-build/orig/sdcc/src/pic14/gen.c:4585:genOr
                      01880 ;;      1027
                      01881 ;;      1045  _PORTB   offset=0
0090   0??? 0???      01882         BANKSEL _PORTB
0092   00??           01883         MOVWF   _PORTB
                      01884 ;;; /home/sdcc-builder/build/sdcc-build/orig/sdcc/src/pic14/gen.c:2358:resultRemat *{*
                      01885 ;;; /home/sdcc-builder/build/sdcc-build/orig/sdcc/src/pic14/gen.c:2820:genGoto *{*
                      01886 ;; >>> /home/sdcc-builder/build/sdcc-build/orig/sdcc/src/pic14/gen.c:2822:genGoto
                      01887 ;; ***  popGetLabel  key=7, label offset 62
                      01888         .line   62; "gpio.c"    break;
0093   2???           01889         GOTO    _00169_DS_
                      01890 ;;; /home/sdcc-builder/build/sdcc-build/orig/sdcc/src/pic14/gen.c:2358:resultRemat *{*
gpasm-1.5.0 #1285 (Sep 12 2016) obj\Debug\gpi   7-19-2020  03:04:18         PAGE 37


LOC    OBJECT CODE    LINE  SOURCE TEXT
  VALUE

                      01891 ;;; /home/sdcc-builder/build/sdcc-build/orig/sdcc/src/pic14/gen.c:2802:genLabel *{*
                      01892 ;; ***  genLabel  2805
                      01893 ;;; /home/sdcc-builder/build/sdcc-build/orig/sdcc/src/pic14/gen.c:2358:resultRemat *{*
                      01894 ;;; /home/sdcc-builder/build/sdcc-build/orig/sdcc/src/pic14/gen.c:7386:genCast *{*
                      01895 ;; ***  genCast  7387
                      01896 ;;      708 register type nRegs=1
                      01897 ;;      708 register type nRegs=1
                      01898 ;;      line = 7395 result AOP_REG=r0x104D, size=1, left -=-, size=0, right AOP_REG=r0x104E, size=1
                      01899 ;; ***  genCast  7537
                      01900 ;; >>> /home/sdcc-builder/build/sdcc-build/orig/sdcc/src/pic14/gen.c:7561:genCast
                      01901 ;;      1126 rIdx = r0x104E 
                      01902 ;;112   MOVF    r0x1007,W
                      01903 ;; >>> /home/sdcc-builder/build/sdcc-build/orig/sdcc/src/pic14/gen.c:7562:genCast
                      01904 ;;      1126 rIdx = r0x104D 
                      01905 ;;; /home/sdcc-builder/build/sdcc-build/orig/sdcc/src/pic14/gen.c:2358:resultRemat *{*
                      01906 ;;; /home/sdcc-builder/build/sdcc-build/orig/sdcc/src/pic14/gen.c:5667:genGenericShift *{*
                      01907 ;; ***  genGenericShift  5670
                      01908 ;;      708 register type nRegs=1
                      01909 ;;      708 register type nRegs=1
                      01910 ;; ***  mov2w  1395  offset=0
                      01911 ;; >>> /home/sdcc-builder/build/sdcc-build/orig/sdcc/src/pic14/gen.c:1398:mov2w
0094                  01912 _00165_DS_:
                      01913         .line   65; "gpio.c"    SET_REGISTER_PIN(PORTC, pin, state);
0094   3001           01914         MOVLW   0x01
                      01915 ;; >>> /home/sdcc-builder/build/sdcc-build/orig/sdcc/src/pic14/gen.c:1407:movwf
                      01916 ;;      1126 rIdx = r0x1050 
0095   0??? 0???      01917         BANKSEL r0x1009
0097   00??           01918         MOVWF   r0x1009
                      01919 ;; ***  addSign  1087
                      01920 ;;; /home/sdcc-builder/build/sdcc-build/orig/sdcc/src/pic14/genarith.c:1088:addSign *{*
                      01921 ;; ***  mov2w  1395  offset=0
                      01922 ;; >>> /home/sdcc-builder/build/sdcc-build/orig/sdcc/src/pic14/gen.c:1400:mov2w
                      01923 ;;      1126 rIdx = r0x104D 
                      01924 ;;111   MOVF    r0x1006,W
0098   08??           01925         MOVF    r0x1007,W
0099   00??           01926         MOVWF   r0x1006
                      01927 ;; >>> /home/sdcc-builder/build/sdcc-build/orig/sdcc/src/pic14/gen.c:5738:genGenericShift
009A   1B??           01928         BTFSC   r0x1006,7
                      01929 ;; >>> /home/sdcc-builder/build/sdcc-build/orig/sdcc/src/pic14/gen.c:5739:genGenericShift
                      01930 ;; ***  popGetLabel  key=29, label offset 62
009B   2???           01931         GOTO    _00192_DS_
                      01932 ;; >>> /home/sdcc-builder/build/sdcc-build/orig/sdcc/src/pic14/gen.c:5741:genGenericShift
009C   3C00           01933         SUBLW   0x00
                      01934 ;; >>> /home/sdcc-builder/build/sdcc-build/orig/sdcc/src/pic14/gen.c:5743:genGenericShift
009D   1903           01935         BTFSC   STATUS,2
                      01936 ;; >>> /home/sdcc-builder/build/sdcc-build/orig/sdcc/src/pic14/gen.c:5744:genGenericShift
                      01937 ;; ***  popGetLabel  key=28, label offset 62
009E   2???           01938         GOTO    _00190_DS_
                      01939 ;;; /home/sdcc-builder/build/sdcc-build/orig/sdcc/src/pic14/gen.c:5618:genMultiAsm *{*
                      01940 ;; ***  genMultiAsm  5619
                      01941 ;; >>> /home/sdcc-builder/build/sdcc-build/orig/sdcc/src/pic14/gen.c:5636:genMultiAsm
                      01942 ;;      1126 rIdx = r0x1050 
009F                  01943 _00189_DS_:
gpasm-1.5.0 #1285 (Sep 12 2016) obj\Debug\gpi   7-19-2020  03:04:18         PAGE 38


LOC    OBJECT CODE    LINE  SOURCE TEXT
  VALUE

009F   0??? 0???      01944         BANKSEL r0x1009
00A1   0D??           01945         RLF     r0x1009,F
                      01946 ;; >>> /home/sdcc-builder/build/sdcc-build/orig/sdcc/src/pic14/gen.c:5750:genGenericShift
00A2   3E01           01947         ADDLW   0x01
                      01948 ;; >>> /home/sdcc-builder/build/sdcc-build/orig/sdcc/src/pic14/gen.c:5751:genGenericShift
00A3   1C03           01949         BTFSS   STATUS,0
                      01950 ;; >>> /home/sdcc-builder/build/sdcc-build/orig/sdcc/src/pic14/gen.c:5752:genGenericShift
                      01951 ;; ***  popGetLabel  key=27, label offset 62
00A4   2???           01952         GOTO    _00189_DS_
                      01953 ;; >>> /home/sdcc-builder/build/sdcc-build/orig/sdcc/src/pic14/gen.c:5761:genGenericShift
                      01954 ;; ***  popGetLabel  key=28, label offset 62
00A5   2???           01955         GOTO    _00190_DS_
                      01956 ;;; /home/sdcc-builder/build/sdcc-build/orig/sdcc/src/pic14/gen.c:5649:loadSignToC *{*
                      01957 ;; >>> /home/sdcc-builder/build/sdcc-build/orig/sdcc/src/pic14/gen.c:5652:loadSignToC
00A6                  01958 _00192_DS_:
00A6   1003           01959         BCF     STATUS,0
                      01960 ;; >>> /home/sdcc-builder/build/sdcc-build/orig/sdcc/src/pic14/gen.c:5653:loadSignToC
00A7   0??? 0???      01961         BANKSEL r0x1009
00A9   1B??           01962         BTFSC   r0x1009,7
                      01963 ;; >>> /home/sdcc-builder/build/sdcc-build/orig/sdcc/src/pic14/gen.c:5654:loadSignToC
00AA   1403           01964         BSF     STATUS,0
                      01965 ;;; /home/sdcc-builder/build/sdcc-build/orig/sdcc/src/pic14/gen.c:5618:genMultiAsm *{*
                      01966 ;; ***  genMultiAsm  5619
                      01967 ;; >>> /home/sdcc-builder/build/sdcc-build/orig/sdcc/src/pic14/gen.c:5636:genMultiAsm
                      01968 ;;      1126 rIdx = r0x1050 
00AB   0C??           01969         RRF     r0x1009,F
                      01970 ;; >>> /home/sdcc-builder/build/sdcc-build/orig/sdcc/src/pic14/gen.c:5772:genGenericShift
00AC   3E01           01971         ADDLW   0x01
                      01972 ;; >>> /home/sdcc-builder/build/sdcc-build/orig/sdcc/src/pic14/gen.c:5773:genGenericShift
00AD   1C03           01973         BTFSS   STATUS,0
                      01974 ;; >>> /home/sdcc-builder/build/sdcc-build/orig/sdcc/src/pic14/gen.c:5774:genGenericShift
                      01975 ;; ***  popGetLabel  key=30, label offset 62
00AE   2???           01976         GOTO    _00192_DS_
                      01977 ;;; /home/sdcc-builder/build/sdcc-build/orig/sdcc/src/pic14/gen.c:2358:resultRemat *{*
                      01978 ;;; /home/sdcc-builder/build/sdcc-build/orig/sdcc/src/pic14/gen.c:1609:genCpl *{*
                      01979 ;; ***  genCpl  1611
                      01980 ;;      708 register type nRegs=1
                      01981 ;;      708 register type nRegs=1
                      01982 ;; >>> /home/sdcc-builder/build/sdcc-build/orig/sdcc/src/pic14/gen.c:1631:genCpl
                      01983 ;;      1126 rIdx = r0x1050 
00AF                  01984 _00190_DS_:
00AF   0??? 0???      01985         BANKSEL r0x1009
00B1   09??           01986         COMF    r0x1009,W
                      01987 ;; >>> /home/sdcc-builder/build/sdcc-build/orig/sdcc/src/pic14/gen.c:1632:genCpl
                      01988 ;;      1126 rIdx = r0x104D 
00B2   00??           01989         MOVWF   r0x1006
                      01990 ;; ***  addSign  1087
                      01991 ;;; /home/sdcc-builder/build/sdcc-build/orig/sdcc/src/pic14/genarith.c:1088:addSign *{*
                      01992 ;;; /home/sdcc-builder/build/sdcc-build/orig/sdcc/src/pic14/gen.c:2358:resultRemat *{*
                      01993 ;;; /home/sdcc-builder/build/sdcc-build/orig/sdcc/src/pic14/gen.c:7386:genCast *{*
                      01994 ;; ***  genCast  7387
                      01995 ;; ***  aopForSym 324
                      01996 ;;      336 sym->rname = _PORTC, size = 1
gpasm-1.5.0 #1285 (Sep 12 2016) obj\Debug\gpi   7-19-2020  03:04:18         PAGE 39


LOC    OBJECT CODE    LINE  SOURCE TEXT
  VALUE

                      01997 ;;      708 register type nRegs=1
                      01998 ;;      line = 7395 result AOP_REG=r0x1050, size=1, left -=-, size=0, right AOP_DIR=_PORTC, size=1
                      01999 ;; ***  genCast  7537
                      02000 ;; >>> /home/sdcc-builder/build/sdcc-build/orig/sdcc/src/pic14/gen.c:7561:genCast
                      02001 ;;      1027
                      02002 ;;      1045  _PORTC   offset=0
00B3   0??? 0???      02003         BANKSEL _PORTC
00B5   08??           02004         MOVF    _PORTC,W
                      02005 ;; >>> /home/sdcc-builder/build/sdcc-build/orig/sdcc/src/pic14/gen.c:7562:genCast
                      02006 ;;      1126 rIdx = r0x1050 
00B6   0??? 0???      02007         BANKSEL r0x1009
00B8   00??           02008         MOVWF   r0x1009
00B9   05??           02009         ANDWF   r0x1006,F
                      02010 ;;; /home/sdcc-builder/build/sdcc-build/orig/sdcc/src/pic14/gen.c:2358:resultRemat *{*
                      02011 ;;; /home/sdcc-builder/build/sdcc-build/orig/sdcc/src/pic14/gen.c:5667:genGenericShift *{*
                      02012 ;; ***  genGenericShift  5670
                      02013 ;;      708 register type nRegs=1
                      02014 ;;      708 register type nRegs=1
                      02015 ;;      708 register type nRegs=1
                      02016 ;; ***  mov2w  1395  offset=0
                      02017 ;; >>> /home/sdcc-builder/build/sdcc-build/orig/sdcc/src/pic14/gen.c:1400:mov2w
                      02018 ;;      1126 rIdx = r0x104F 
00BA   08??           02019         MOVF    r0x1008,W
                      02020 ;; >>> /home/sdcc-builder/build/sdcc-build/orig/sdcc/src/pic14/gen.c:1407:movwf
                      02021 ;;      1126 rIdx = r0x1050 
00BB   00??           02022         MOVWF   r0x1009
                      02023 ;; ***  addSign  1087
                      02024 ;;; /home/sdcc-builder/build/sdcc-build/orig/sdcc/src/pic14/genarith.c:1088:addSign *{*
                      02025 ;; ***  mov2w  1395  offset=0
                      02026 ;; >>> /home/sdcc-builder/build/sdcc-build/orig/sdcc/src/pic14/gen.c:1400:mov2w
                      02027 ;;      1126 rIdx = r0x104E 
00BC   08??           02028         MOVF    r0x1007,W
                      02029 ;; >>> /home/sdcc-builder/build/sdcc-build/orig/sdcc/src/pic14/gen.c:5741:genGenericShift
00BD   3C00           02030         SUBLW   0x00
                      02031 ;; >>> /home/sdcc-builder/build/sdcc-build/orig/sdcc/src/pic14/gen.c:5743:genGenericShift
00BE   1903           02032         BTFSC   STATUS,2
                      02033 ;; >>> /home/sdcc-builder/build/sdcc-build/orig/sdcc/src/pic14/gen.c:5744:genGenericShift
                      02034 ;; ***  popGetLabel  key=32, label offset 62
00BF   2???           02035         GOTO    _00194_DS_
                      02036 ;;; /home/sdcc-builder/build/sdcc-build/orig/sdcc/src/pic14/gen.c:5618:genMultiAsm *{*
                      02037 ;; ***  genMultiAsm  5619
                      02038 ;; >>> /home/sdcc-builder/build/sdcc-build/orig/sdcc/src/pic14/gen.c:5636:genMultiAsm
                      02039 ;;      1126 rIdx = r0x1050 
00C0                  02040 _00193_DS_:
00C0   0??? 0???      02041         BANKSEL r0x1009
00C2   0D??           02042         RLF     r0x1009,F
                      02043 ;; >>> /home/sdcc-builder/build/sdcc-build/orig/sdcc/src/pic14/gen.c:5750:genGenericShift
00C3   3E01           02044         ADDLW   0x01
                      02045 ;; >>> /home/sdcc-builder/build/sdcc-build/orig/sdcc/src/pic14/gen.c:5751:genGenericShift
00C4   1C03           02046         BTFSS   STATUS,0
                      02047 ;; >>> /home/sdcc-builder/build/sdcc-build/orig/sdcc/src/pic14/gen.c:5752:genGenericShift
                      02048 ;; ***  popGetLabel  key=31, label offset 62
00C5   2???           02049         GOTO    _00193_DS_
gpasm-1.5.0 #1285 (Sep 12 2016) obj\Debug\gpi   7-19-2020  03:04:18         PAGE 40


LOC    OBJECT CODE    LINE  SOURCE TEXT
  VALUE

                      02050 ;;; /home/sdcc-builder/build/sdcc-build/orig/sdcc/src/pic14/gen.c:2358:resultRemat *{*
                      02051 ;;; /home/sdcc-builder/build/sdcc-build/orig/sdcc/src/pic14/gen.c:7386:genCast *{*
                      02052 ;; ***  genCast  7387
                      02053 ;;      708 register type nRegs=1
                      02054 ;;      708 register type nRegs=1
                      02055 ;;      line = 7395 result AOP_REG=r0x1051, size=1, left -=-, size=0, right AOP_REG=r0x1050, size=1
                      02056 ;; ***  genCast  7537
                      02057 ;; >>> /home/sdcc-builder/build/sdcc-build/orig/sdcc/src/pic14/gen.c:7561:genCast
                      02058 ;;      1126 rIdx = r0x1050 
00C6                  02059 _00194_DS_:
00C6   0??? 0???      02060         BANKSEL r0x1009
00C8   08??           02061         MOVF    r0x1009,W
                      02062 ;; >>> /home/sdcc-builder/build/sdcc-build/orig/sdcc/src/pic14/gen.c:7562:genCast
                      02063 ;;      1126 rIdx = r0x1051 
00C9   00??           02064         MOVWF   r0x100A
00CA   04??           02065         IORWF   r0x1006,W
                      02066 ;; >>> /home/sdcc-builder/build/sdcc-build/orig/sdcc/src/pic14/gen.c:4585:genOr
                      02067 ;;      1027
                      02068 ;;      1045  _PORTC   offset=0
00CB   0??? 0???      02069         BANKSEL _PORTC
00CD   00??           02070         MOVWF   _PORTC
                      02071 ;;; /home/sdcc-builder/build/sdcc-build/orig/sdcc/src/pic14/gen.c:2358:resultRemat *{*
                      02072 ;;; /home/sdcc-builder/build/sdcc-build/orig/sdcc/src/pic14/gen.c:2820:genGoto *{*
                      02073 ;; >>> /home/sdcc-builder/build/sdcc-build/orig/sdcc/src/pic14/gen.c:2822:genGoto
                      02074 ;; ***  popGetLabel  key=7, label offset 62
                      02075         .line   66; "gpio.c"    break;
00CE   2???           02076         GOTO    _00169_DS_
                      02077 ;;; /home/sdcc-builder/build/sdcc-build/orig/sdcc/src/pic14/gen.c:2358:resultRemat *{*
                      02078 ;;; /home/sdcc-builder/build/sdcc-build/orig/sdcc/src/pic14/gen.c:2802:genLabel *{*
                      02079 ;; ***  genLabel  2805
                      02080 ;;; /home/sdcc-builder/build/sdcc-build/orig/sdcc/src/pic14/gen.c:2358:resultRemat *{*
                      02081 ;;; /home/sdcc-builder/build/sdcc-build/orig/sdcc/src/pic14/gen.c:7386:genCast *{*
                      02082 ;; ***  genCast  7387
                      02083 ;;      708 register type nRegs=1
                      02084 ;;      708 register type nRegs=1
                      02085 ;;      line = 7395 result AOP_REG=r0x104D, size=1, left -=-, size=0, right AOP_REG=r0x104E, size=1
                      02086 ;; ***  genCast  7537
                      02087 ;; >>> /home/sdcc-builder/build/sdcc-build/orig/sdcc/src/pic14/gen.c:7561:genCast
                      02088 ;;      1126 rIdx = r0x104E 
                      02089 ;;108   MOVF    r0x1007,W
                      02090 ;; >>> /home/sdcc-builder/build/sdcc-build/orig/sdcc/src/pic14/gen.c:7562:genCast
                      02091 ;;      1126 rIdx = r0x104D 
                      02092 ;;; /home/sdcc-builder/build/sdcc-build/orig/sdcc/src/pic14/gen.c:2358:resultRemat *{*
                      02093 ;;; /home/sdcc-builder/build/sdcc-build/orig/sdcc/src/pic14/gen.c:5667:genGenericShift *{*
                      02094 ;; ***  genGenericShift  5670
                      02095 ;;      708 register type nRegs=1
                      02096 ;;      708 register type nRegs=1
                      02097 ;; ***  mov2w  1395  offset=0
                      02098 ;; >>> /home/sdcc-builder/build/sdcc-build/orig/sdcc/src/pic14/gen.c:1398:mov2w
00CF                  02099 _00166_DS_:
                      02100         .line   69; "gpio.c"    SET_REGISTER_PIN(PORTD, pin, state);
00CF   3001           02101         MOVLW   0x01
                      02102 ;; >>> /home/sdcc-builder/build/sdcc-build/orig/sdcc/src/pic14/gen.c:1407:movwf
gpasm-1.5.0 #1285 (Sep 12 2016) obj\Debug\gpi   7-19-2020  03:04:18         PAGE 41


LOC    OBJECT CODE    LINE  SOURCE TEXT
  VALUE

                      02103 ;;      1126 rIdx = r0x1050 
00D0   0??? 0???      02104         BANKSEL r0x1009
00D2   00??           02105         MOVWF   r0x1009
                      02106 ;; ***  addSign  1087
                      02107 ;;; /home/sdcc-builder/build/sdcc-build/orig/sdcc/src/pic14/genarith.c:1088:addSign *{*
                      02108 ;; ***  mov2w  1395  offset=0
                      02109 ;; >>> /home/sdcc-builder/build/sdcc-build/orig/sdcc/src/pic14/gen.c:1400:mov2w
                      02110 ;;      1126 rIdx = r0x104D 
                      02111 ;;107   MOVF    r0x1006,W
00D3   08??           02112         MOVF    r0x1007,W
00D4   00??           02113         MOVWF   r0x1006
                      02114 ;; >>> /home/sdcc-builder/build/sdcc-build/orig/sdcc/src/pic14/gen.c:5738:genGenericShift
00D5   1B??           02115         BTFSC   r0x1006,7
                      02116 ;; >>> /home/sdcc-builder/build/sdcc-build/orig/sdcc/src/pic14/gen.c:5739:genGenericShift
                      02117 ;; ***  popGetLabel  key=35, label offset 62
00D6   2???           02118         GOTO    _00198_DS_
                      02119 ;; >>> /home/sdcc-builder/build/sdcc-build/orig/sdcc/src/pic14/gen.c:5741:genGenericShift
00D7   3C00           02120         SUBLW   0x00
                      02121 ;; >>> /home/sdcc-builder/build/sdcc-build/orig/sdcc/src/pic14/gen.c:5743:genGenericShift
00D8   1903           02122         BTFSC   STATUS,2
                      02123 ;; >>> /home/sdcc-builder/build/sdcc-build/orig/sdcc/src/pic14/gen.c:5744:genGenericShift
                      02124 ;; ***  popGetLabel  key=34, label offset 62
00D9   2???           02125         GOTO    _00196_DS_
                      02126 ;;; /home/sdcc-builder/build/sdcc-build/orig/sdcc/src/pic14/gen.c:5618:genMultiAsm *{*
                      02127 ;; ***  genMultiAsm  5619
                      02128 ;; >>> /home/sdcc-builder/build/sdcc-build/orig/sdcc/src/pic14/gen.c:5636:genMultiAsm
                      02129 ;;      1126 rIdx = r0x1050 
00DA                  02130 _00195_DS_:
00DA   0??? 0???      02131         BANKSEL r0x1009
00DC   0D??           02132         RLF     r0x1009,F
                      02133 ;; >>> /home/sdcc-builder/build/sdcc-build/orig/sdcc/src/pic14/gen.c:5750:genGenericShift
00DD   3E01           02134         ADDLW   0x01
                      02135 ;; >>> /home/sdcc-builder/build/sdcc-build/orig/sdcc/src/pic14/gen.c:5751:genGenericShift
00DE   1C03           02136         BTFSS   STATUS,0
                      02137 ;; >>> /home/sdcc-builder/build/sdcc-build/orig/sdcc/src/pic14/gen.c:5752:genGenericShift
                      02138 ;; ***  popGetLabel  key=33, label offset 62
00DF   2???           02139         GOTO    _00195_DS_
                      02140 ;; >>> /home/sdcc-builder/build/sdcc-build/orig/sdcc/src/pic14/gen.c:5761:genGenericShift
                      02141 ;; ***  popGetLabel  key=34, label offset 62
00E0   2???           02142         GOTO    _00196_DS_
                      02143 ;;; /home/sdcc-builder/build/sdcc-build/orig/sdcc/src/pic14/gen.c:5649:loadSignToC *{*
                      02144 ;; >>> /home/sdcc-builder/build/sdcc-build/orig/sdcc/src/pic14/gen.c:5652:loadSignToC
00E1                  02145 _00198_DS_:
00E1   1003           02146         BCF     STATUS,0
                      02147 ;; >>> /home/sdcc-builder/build/sdcc-build/orig/sdcc/src/pic14/gen.c:5653:loadSignToC
00E2   0??? 0???      02148         BANKSEL r0x1009
00E4   1B??           02149         BTFSC   r0x1009,7
                      02150 ;; >>> /home/sdcc-builder/build/sdcc-build/orig/sdcc/src/pic14/gen.c:5654:loadSignToC
00E5   1403           02151         BSF     STATUS,0
                      02152 ;;; /home/sdcc-builder/build/sdcc-build/orig/sdcc/src/pic14/gen.c:5618:genMultiAsm *{*
                      02153 ;; ***  genMultiAsm  5619
                      02154 ;; >>> /home/sdcc-builder/build/sdcc-build/orig/sdcc/src/pic14/gen.c:5636:genMultiAsm
                      02155 ;;      1126 rIdx = r0x1050 
gpasm-1.5.0 #1285 (Sep 12 2016) obj\Debug\gpi   7-19-2020  03:04:18         PAGE 42


LOC    OBJECT CODE    LINE  SOURCE TEXT
  VALUE

00E6   0C??           02156         RRF     r0x1009,F
                      02157 ;; >>> /home/sdcc-builder/build/sdcc-build/orig/sdcc/src/pic14/gen.c:5772:genGenericShift
00E7   3E01           02158         ADDLW   0x01
                      02159 ;; >>> /home/sdcc-builder/build/sdcc-build/orig/sdcc/src/pic14/gen.c:5773:genGenericShift
00E8   1C03           02160         BTFSS   STATUS,0
                      02161 ;; >>> /home/sdcc-builder/build/sdcc-build/orig/sdcc/src/pic14/gen.c:5774:genGenericShift
                      02162 ;; ***  popGetLabel  key=36, label offset 62
00E9   2???           02163         GOTO    _00198_DS_
                      02164 ;;; /home/sdcc-builder/build/sdcc-build/orig/sdcc/src/pic14/gen.c:2358:resultRemat *{*
                      02165 ;;; /home/sdcc-builder/build/sdcc-build/orig/sdcc/src/pic14/gen.c:1609:genCpl *{*
                      02166 ;; ***  genCpl  1611
                      02167 ;;      708 register type nRegs=1
                      02168 ;;      708 register type nRegs=1
                      02169 ;; >>> /home/sdcc-builder/build/sdcc-build/orig/sdcc/src/pic14/gen.c:1631:genCpl
                      02170 ;;      1126 rIdx = r0x1050 
00EA                  02171 _00196_DS_:
00EA   0??? 0???      02172         BANKSEL r0x1009
00EC   09??           02173         COMF    r0x1009,W
                      02174 ;; >>> /home/sdcc-builder/build/sdcc-build/orig/sdcc/src/pic14/gen.c:1632:genCpl
                      02175 ;;      1126 rIdx = r0x104D 
00ED   00??           02176         MOVWF   r0x1006
                      02177 ;; ***  addSign  1087
                      02178 ;;; /home/sdcc-builder/build/sdcc-build/orig/sdcc/src/pic14/genarith.c:1088:addSign *{*
                      02179 ;;; /home/sdcc-builder/build/sdcc-build/orig/sdcc/src/pic14/gen.c:2358:resultRemat *{*
                      02180 ;;; /home/sdcc-builder/build/sdcc-build/orig/sdcc/src/pic14/gen.c:7386:genCast *{*
                      02181 ;; ***  genCast  7387
                      02182 ;; ***  aopForSym 324
                      02183 ;;      336 sym->rname = _PORTD, size = 1
                      02184 ;;      708 register type nRegs=1
                      02185 ;;      line = 7395 result AOP_REG=r0x1050, size=1, left -=-, size=0, right AOP_DIR=_PORTD, size=1
                      02186 ;; ***  genCast  7537
                      02187 ;; >>> /home/sdcc-builder/build/sdcc-build/orig/sdcc/src/pic14/gen.c:7561:genCast
                      02188 ;;      1027
                      02189 ;;      1045  _PORTD   offset=0
00EE   0??? 0???      02190         BANKSEL _PORTD
00F0   08??           02191         MOVF    _PORTD,W
                      02192 ;; >>> /home/sdcc-builder/build/sdcc-build/orig/sdcc/src/pic14/gen.c:7562:genCast
                      02193 ;;      1126 rIdx = r0x1050 
00F1   0??? 0???      02194         BANKSEL r0x1009
00F3   00??           02195         MOVWF   r0x1009
00F4   05??           02196         ANDWF   r0x1006,F
                      02197 ;;; /home/sdcc-builder/build/sdcc-build/orig/sdcc/src/pic14/gen.c:2358:resultRemat *{*
                      02198 ;;; /home/sdcc-builder/build/sdcc-build/orig/sdcc/src/pic14/gen.c:5667:genGenericShift *{*
                      02199 ;; ***  genGenericShift  5670
                      02200 ;;      708 register type nRegs=1
                      02201 ;;      708 register type nRegs=1
                      02202 ;;      708 register type nRegs=1
                      02203 ;; ***  mov2w  1395  offset=0
                      02204 ;; >>> /home/sdcc-builder/build/sdcc-build/orig/sdcc/src/pic14/gen.c:1400:mov2w
                      02205 ;;      1126 rIdx = r0x104F 
00F5   08??           02206         MOVF    r0x1008,W
                      02207 ;; >>> /home/sdcc-builder/build/sdcc-build/orig/sdcc/src/pic14/gen.c:1407:movwf
                      02208 ;;      1126 rIdx = r0x1050 
gpasm-1.5.0 #1285 (Sep 12 2016) obj\Debug\gpi   7-19-2020  03:04:18         PAGE 43


LOC    OBJECT CODE    LINE  SOURCE TEXT
  VALUE

00F6   00??           02209         MOVWF   r0x1009
                      02210 ;; ***  addSign  1087
                      02211 ;;; /home/sdcc-builder/build/sdcc-build/orig/sdcc/src/pic14/genarith.c:1088:addSign *{*
                      02212 ;; ***  mov2w  1395  offset=0
                      02213 ;; >>> /home/sdcc-builder/build/sdcc-build/orig/sdcc/src/pic14/gen.c:1400:mov2w
                      02214 ;;      1126 rIdx = r0x104E 
00F7   08??           02215         MOVF    r0x1007,W
                      02216 ;; >>> /home/sdcc-builder/build/sdcc-build/orig/sdcc/src/pic14/gen.c:5741:genGenericShift
00F8   3C00           02217         SUBLW   0x00
                      02218 ;; >>> /home/sdcc-builder/build/sdcc-build/orig/sdcc/src/pic14/gen.c:5743:genGenericShift
00F9   1903           02219         BTFSC   STATUS,2
                      02220 ;; >>> /home/sdcc-builder/build/sdcc-build/orig/sdcc/src/pic14/gen.c:5744:genGenericShift
                      02221 ;; ***  popGetLabel  key=38, label offset 62
00FA   2???           02222         GOTO    _00200_DS_
                      02223 ;;; /home/sdcc-builder/build/sdcc-build/orig/sdcc/src/pic14/gen.c:5618:genMultiAsm *{*
                      02224 ;; ***  genMultiAsm  5619
                      02225 ;; >>> /home/sdcc-builder/build/sdcc-build/orig/sdcc/src/pic14/gen.c:5636:genMultiAsm
                      02226 ;;      1126 rIdx = r0x1050 
00FB                  02227 _00199_DS_:
00FB   0??? 0???      02228         BANKSEL r0x1009
00FD   0D??           02229         RLF     r0x1009,F
                      02230 ;; >>> /home/sdcc-builder/build/sdcc-build/orig/sdcc/src/pic14/gen.c:5750:genGenericShift
00FE   3E01           02231         ADDLW   0x01
                      02232 ;; >>> /home/sdcc-builder/build/sdcc-build/orig/sdcc/src/pic14/gen.c:5751:genGenericShift
00FF   1C03           02233         BTFSS   STATUS,0
                      02234 ;; >>> /home/sdcc-builder/build/sdcc-build/orig/sdcc/src/pic14/gen.c:5752:genGenericShift
                      02235 ;; ***  popGetLabel  key=37, label offset 62
0100   2???           02236         GOTO    _00199_DS_
                      02237 ;;; /home/sdcc-builder/build/sdcc-build/orig/sdcc/src/pic14/gen.c:2358:resultRemat *{*
                      02238 ;;; /home/sdcc-builder/build/sdcc-build/orig/sdcc/src/pic14/gen.c:7386:genCast *{*
                      02239 ;; ***  genCast  7387
                      02240 ;;      708 register type nRegs=1
                      02241 ;;      708 register type nRegs=1
                      02242 ;;      line = 7395 result AOP_REG=r0x1051, size=1, left -=-, size=0, right AOP_REG=r0x1050, size=1
                      02243 ;; ***  genCast  7537
                      02244 ;; >>> /home/sdcc-builder/build/sdcc-build/orig/sdcc/src/pic14/gen.c:7561:genCast
                      02245 ;;      1126 rIdx = r0x1050 
0101                  02246 _00200_DS_:
0101   0??? 0???      02247         BANKSEL r0x1009
0103   08??           02248         MOVF    r0x1009,W
                      02249 ;; >>> /home/sdcc-builder/build/sdcc-build/orig/sdcc/src/pic14/gen.c:7562:genCast
                      02250 ;;      1126 rIdx = r0x1051 
0104   00??           02251         MOVWF   r0x100A
0105   04??           02252         IORWF   r0x1006,W
                      02253 ;; >>> /home/sdcc-builder/build/sdcc-build/orig/sdcc/src/pic14/gen.c:4585:genOr
                      02254 ;;      1027
                      02255 ;;      1045  _PORTD   offset=0
0106   0??? 0???      02256         BANKSEL _PORTD
0108   00??           02257         MOVWF   _PORTD
                      02258 ;;; /home/sdcc-builder/build/sdcc-build/orig/sdcc/src/pic14/gen.c:2358:resultRemat *{*
                      02259 ;;; /home/sdcc-builder/build/sdcc-build/orig/sdcc/src/pic14/gen.c:2820:genGoto *{*
                      02260 ;; >>> /home/sdcc-builder/build/sdcc-build/orig/sdcc/src/pic14/gen.c:2822:genGoto
                      02261 ;; ***  popGetLabel  key=7, label offset 62
gpasm-1.5.0 #1285 (Sep 12 2016) obj\Debug\gpi   7-19-2020  03:04:18         PAGE 44


LOC    OBJECT CODE    LINE  SOURCE TEXT
  VALUE

                      02262         .line   70; "gpio.c"    break;
0109   2???           02263         GOTO    _00169_DS_
                      02264 ;;; /home/sdcc-builder/build/sdcc-build/orig/sdcc/src/pic14/gen.c:2358:resultRemat *{*
                      02265 ;;; /home/sdcc-builder/build/sdcc-build/orig/sdcc/src/pic14/gen.c:2802:genLabel *{*
                      02266 ;; ***  genLabel  2805
                      02267 ;;; /home/sdcc-builder/build/sdcc-build/orig/sdcc/src/pic14/gen.c:2358:resultRemat *{*
                      02268 ;;; /home/sdcc-builder/build/sdcc-build/orig/sdcc/src/pic14/gen.c:7386:genCast *{*
                      02269 ;; ***  genCast  7387
                      02270 ;;      708 register type nRegs=1
                      02271 ;;      708 register type nRegs=1
                      02272 ;;      line = 7395 result AOP_REG=r0x104D, size=1, left -=-, size=0, right AOP_REG=r0x104E, size=1
                      02273 ;; ***  genCast  7537
                      02274 ;; >>> /home/sdcc-builder/build/sdcc-build/orig/sdcc/src/pic14/gen.c:7561:genCast
                      02275 ;;      1126 rIdx = r0x104E 
                      02276 ;;102   MOVF    r0x1007,W
                      02277 ;; >>> /home/sdcc-builder/build/sdcc-build/orig/sdcc/src/pic14/gen.c:7562:genCast
                      02278 ;;      1126 rIdx = r0x104D 
                      02279 ;;; /home/sdcc-builder/build/sdcc-build/orig/sdcc/src/pic14/gen.c:2358:resultRemat *{*
                      02280 ;;; /home/sdcc-builder/build/sdcc-build/orig/sdcc/src/pic14/gen.c:5667:genGenericShift *{*
                      02281 ;; ***  genGenericShift  5670
                      02282 ;;      708 register type nRegs=1
                      02283 ;;      708 register type nRegs=1
                      02284 ;; ***  mov2w  1395  offset=0
                      02285 ;; >>> /home/sdcc-builder/build/sdcc-build/orig/sdcc/src/pic14/gen.c:1398:mov2w
010A                  02286 _00167_DS_:
                      02287         .line   73; "gpio.c"    SET_REGISTER_PIN(PORTE, pin, state);
010A   3001           02288         MOVLW   0x01
                      02289 ;; >>> /home/sdcc-builder/build/sdcc-build/orig/sdcc/src/pic14/gen.c:1407:movwf
                      02290 ;;      1126 rIdx = r0x1050 
010B   0??? 0???      02291         BANKSEL r0x1009
010D   00??           02292         MOVWF   r0x1009
                      02293 ;; ***  addSign  1087
                      02294 ;;; /home/sdcc-builder/build/sdcc-build/orig/sdcc/src/pic14/genarith.c:1088:addSign *{*
                      02295 ;; ***  mov2w  1395  offset=0
                      02296 ;; >>> /home/sdcc-builder/build/sdcc-build/orig/sdcc/src/pic14/gen.c:1400:mov2w
                      02297 ;;      1126 rIdx = r0x104D 
                      02298 ;;101   MOVF    r0x1006,W
010E   08??           02299         MOVF    r0x1007,W
010F   00??           02300         MOVWF   r0x1006
                      02301 ;; >>> /home/sdcc-builder/build/sdcc-build/orig/sdcc/src/pic14/gen.c:5738:genGenericShift
0110   1B??           02302         BTFSC   r0x1006,7
                      02303 ;; >>> /home/sdcc-builder/build/sdcc-build/orig/sdcc/src/pic14/gen.c:5739:genGenericShift
                      02304 ;; ***  popGetLabel  key=41, label offset 62
0111   2???           02305         GOTO    _00204_DS_
                      02306 ;; >>> /home/sdcc-builder/build/sdcc-build/orig/sdcc/src/pic14/gen.c:5741:genGenericShift
0112   3C00           02307         SUBLW   0x00
                      02308 ;; >>> /home/sdcc-builder/build/sdcc-build/orig/sdcc/src/pic14/gen.c:5743:genGenericShift
0113   1903           02309         BTFSC   STATUS,2
                      02310 ;; >>> /home/sdcc-builder/build/sdcc-build/orig/sdcc/src/pic14/gen.c:5744:genGenericShift
                      02311 ;; ***  popGetLabel  key=40, label offset 62
0114   2???           02312         GOTO    _00202_DS_
                      02313 ;;; /home/sdcc-builder/build/sdcc-build/orig/sdcc/src/pic14/gen.c:5618:genMultiAsm *{*
                      02314 ;; ***  genMultiAsm  5619
gpasm-1.5.0 #1285 (Sep 12 2016) obj\Debug\gpi   7-19-2020  03:04:18         PAGE 45


LOC    OBJECT CODE    LINE  SOURCE TEXT
  VALUE

                      02315 ;; >>> /home/sdcc-builder/build/sdcc-build/orig/sdcc/src/pic14/gen.c:5636:genMultiAsm
                      02316 ;;      1126 rIdx = r0x1050 
0115                  02317 _00201_DS_:
0115   0??? 0???      02318         BANKSEL r0x1009
0117   0D??           02319         RLF     r0x1009,F
                      02320 ;; >>> /home/sdcc-builder/build/sdcc-build/orig/sdcc/src/pic14/gen.c:5750:genGenericShift
0118   3E01           02321         ADDLW   0x01
                      02322 ;; >>> /home/sdcc-builder/build/sdcc-build/orig/sdcc/src/pic14/gen.c:5751:genGenericShift
0119   1C03           02323         BTFSS   STATUS,0
                      02324 ;; >>> /home/sdcc-builder/build/sdcc-build/orig/sdcc/src/pic14/gen.c:5752:genGenericShift
                      02325 ;; ***  popGetLabel  key=39, label offset 62
011A   2???           02326         GOTO    _00201_DS_
                      02327 ;; >>> /home/sdcc-builder/build/sdcc-build/orig/sdcc/src/pic14/gen.c:5761:genGenericShift
                      02328 ;; ***  popGetLabel  key=40, label offset 62
011B   2???           02329         GOTO    _00202_DS_
                      02330 ;;; /home/sdcc-builder/build/sdcc-build/orig/sdcc/src/pic14/gen.c:5649:loadSignToC *{*
                      02331 ;; >>> /home/sdcc-builder/build/sdcc-build/orig/sdcc/src/pic14/gen.c:5652:loadSignToC
011C                  02332 _00204_DS_:
011C   1003           02333         BCF     STATUS,0
                      02334 ;; >>> /home/sdcc-builder/build/sdcc-build/orig/sdcc/src/pic14/gen.c:5653:loadSignToC
011D   0??? 0???      02335         BANKSEL r0x1009
011F   1B??           02336         BTFSC   r0x1009,7
                      02337 ;; >>> /home/sdcc-builder/build/sdcc-build/orig/sdcc/src/pic14/gen.c:5654:loadSignToC
0120   1403           02338         BSF     STATUS,0
                      02339 ;;; /home/sdcc-builder/build/sdcc-build/orig/sdcc/src/pic14/gen.c:5618:genMultiAsm *{*
                      02340 ;; ***  genMultiAsm  5619
                      02341 ;; >>> /home/sdcc-builder/build/sdcc-build/orig/sdcc/src/pic14/gen.c:5636:genMultiAsm
                      02342 ;;      1126 rIdx = r0x1050 
0121   0C??           02343         RRF     r0x1009,F
                      02344 ;; >>> /home/sdcc-builder/build/sdcc-build/orig/sdcc/src/pic14/gen.c:5772:genGenericShift
0122   3E01           02345         ADDLW   0x01
                      02346 ;; >>> /home/sdcc-builder/build/sdcc-build/orig/sdcc/src/pic14/gen.c:5773:genGenericShift
0123   1C03           02347         BTFSS   STATUS,0
                      02348 ;; >>> /home/sdcc-builder/build/sdcc-build/orig/sdcc/src/pic14/gen.c:5774:genGenericShift
                      02349 ;; ***  popGetLabel  key=42, label offset 62
0124   2???           02350         GOTO    _00204_DS_
                      02351 ;;; /home/sdcc-builder/build/sdcc-build/orig/sdcc/src/pic14/gen.c:2358:resultRemat *{*
                      02352 ;;; /home/sdcc-builder/build/sdcc-build/orig/sdcc/src/pic14/gen.c:1609:genCpl *{*
                      02353 ;; ***  genCpl  1611
                      02354 ;;      708 register type nRegs=1
                      02355 ;;      708 register type nRegs=1
                      02356 ;; >>> /home/sdcc-builder/build/sdcc-build/orig/sdcc/src/pic14/gen.c:1631:genCpl
                      02357 ;;      1126 rIdx = r0x1050 
0125                  02358 _00202_DS_:
0125   0??? 0???      02359         BANKSEL r0x1009
0127   09??           02360         COMF    r0x1009,W
                      02361 ;; >>> /home/sdcc-builder/build/sdcc-build/orig/sdcc/src/pic14/gen.c:1632:genCpl
                      02362 ;;      1126 rIdx = r0x104D 
0128   00??           02363         MOVWF   r0x1006
                      02364 ;; ***  addSign  1087
                      02365 ;;; /home/sdcc-builder/build/sdcc-build/orig/sdcc/src/pic14/genarith.c:1088:addSign *{*
                      02366 ;;; /home/sdcc-builder/build/sdcc-build/orig/sdcc/src/pic14/gen.c:2358:resultRemat *{*
                      02367 ;;; /home/sdcc-builder/build/sdcc-build/orig/sdcc/src/pic14/gen.c:7386:genCast *{*
gpasm-1.5.0 #1285 (Sep 12 2016) obj\Debug\gpi   7-19-2020  03:04:18         PAGE 46


LOC    OBJECT CODE    LINE  SOURCE TEXT
  VALUE

                      02368 ;; ***  genCast  7387
                      02369 ;; ***  aopForSym 324
                      02370 ;;      336 sym->rname = _PORTE, size = 1
                      02371 ;;      708 register type nRegs=1
                      02372 ;;      line = 7395 result AOP_REG=r0x1050, size=1, left -=-, size=0, right AOP_DIR=_PORTE, size=1
                      02373 ;; ***  genCast  7537
                      02374 ;; >>> /home/sdcc-builder/build/sdcc-build/orig/sdcc/src/pic14/gen.c:7561:genCast
                      02375 ;;      1027
                      02376 ;;      1045  _PORTE   offset=0
0129   0??? 0???      02377         BANKSEL _PORTE
012B   08??           02378         MOVF    _PORTE,W
                      02379 ;; >>> /home/sdcc-builder/build/sdcc-build/orig/sdcc/src/pic14/gen.c:7562:genCast
                      02380 ;;      1126 rIdx = r0x1050 
012C   0??? 0???      02381         BANKSEL r0x1009
012E   00??           02382         MOVWF   r0x1009
012F   05??           02383         ANDWF   r0x1006,F
                      02384 ;;; /home/sdcc-builder/build/sdcc-build/orig/sdcc/src/pic14/gen.c:2358:resultRemat *{*
                      02385 ;;; /home/sdcc-builder/build/sdcc-build/orig/sdcc/src/pic14/gen.c:5667:genGenericShift *{*
                      02386 ;; ***  genGenericShift  5670
                      02387 ;;      708 register type nRegs=1
                      02388 ;;      708 register type nRegs=1
                      02389 ;;      708 register type nRegs=1
                      02390 ;; ***  mov2w  1395  offset=0
                      02391 ;; >>> /home/sdcc-builder/build/sdcc-build/orig/sdcc/src/pic14/gen.c:1400:mov2w
                      02392 ;;      1126 rIdx = r0x104F 
0130   08??           02393         MOVF    r0x1008,W
                      02394 ;; >>> /home/sdcc-builder/build/sdcc-build/orig/sdcc/src/pic14/gen.c:1407:movwf
                      02395 ;;      1126 rIdx = r0x1050 
0131   00??           02396         MOVWF   r0x1009
                      02397 ;; ***  addSign  1087
                      02398 ;;; /home/sdcc-builder/build/sdcc-build/orig/sdcc/src/pic14/genarith.c:1088:addSign *{*
                      02399 ;; ***  mov2w  1395  offset=0
                      02400 ;; >>> /home/sdcc-builder/build/sdcc-build/orig/sdcc/src/pic14/gen.c:1400:mov2w
                      02401 ;;      1126 rIdx = r0x104E 
0132   08??           02402         MOVF    r0x1007,W
                      02403 ;; >>> /home/sdcc-builder/build/sdcc-build/orig/sdcc/src/pic14/gen.c:5741:genGenericShift
0133   3C00           02404         SUBLW   0x00
                      02405 ;; >>> /home/sdcc-builder/build/sdcc-build/orig/sdcc/src/pic14/gen.c:5743:genGenericShift
0134   1903           02406         BTFSC   STATUS,2
                      02407 ;; >>> /home/sdcc-builder/build/sdcc-build/orig/sdcc/src/pic14/gen.c:5744:genGenericShift
                      02408 ;; ***  popGetLabel  key=44, label offset 62
0135   2???           02409         GOTO    _00206_DS_
                      02410 ;;; /home/sdcc-builder/build/sdcc-build/orig/sdcc/src/pic14/gen.c:5618:genMultiAsm *{*
                      02411 ;; ***  genMultiAsm  5619
                      02412 ;; >>> /home/sdcc-builder/build/sdcc-build/orig/sdcc/src/pic14/gen.c:5636:genMultiAsm
                      02413 ;;      1126 rIdx = r0x1050 
0136                  02414 _00205_DS_:
0136   0??? 0???      02415         BANKSEL r0x1009
0138   0D??           02416         RLF     r0x1009,F
                      02417 ;; >>> /home/sdcc-builder/build/sdcc-build/orig/sdcc/src/pic14/gen.c:5750:genGenericShift
0139   3E01           02418         ADDLW   0x01
                      02419 ;; >>> /home/sdcc-builder/build/sdcc-build/orig/sdcc/src/pic14/gen.c:5751:genGenericShift
013A   1C03           02420         BTFSS   STATUS,0
gpasm-1.5.0 #1285 (Sep 12 2016) obj\Debug\gpi   7-19-2020  03:04:18         PAGE 47


LOC    OBJECT CODE    LINE  SOURCE TEXT
  VALUE

                      02421 ;; >>> /home/sdcc-builder/build/sdcc-build/orig/sdcc/src/pic14/gen.c:5752:genGenericShift
                      02422 ;; ***  popGetLabel  key=43, label offset 62
013B   2???           02423         GOTO    _00205_DS_
                      02424 ;;; /home/sdcc-builder/build/sdcc-build/orig/sdcc/src/pic14/gen.c:2358:resultRemat *{*
                      02425 ;;; /home/sdcc-builder/build/sdcc-build/orig/sdcc/src/pic14/gen.c:7386:genCast *{*
                      02426 ;; ***  genCast  7387
                      02427 ;;      708 register type nRegs=1
                      02428 ;;      708 register type nRegs=1
                      02429 ;;      line = 7395 result AOP_REG=r0x104E, size=1, left -=-, size=0, right AOP_REG=r0x1050, size=1
                      02430 ;; ***  genCast  7537
                      02431 ;; >>> /home/sdcc-builder/build/sdcc-build/orig/sdcc/src/pic14/gen.c:7561:genCast
                      02432 ;;      1126 rIdx = r0x1050 
013C                  02433 _00206_DS_:
013C   0??? 0???      02434         BANKSEL r0x1009
013E   08??           02435         MOVF    r0x1009,W
                      02436 ;; >>> /home/sdcc-builder/build/sdcc-build/orig/sdcc/src/pic14/gen.c:7562:genCast
                      02437 ;;      1126 rIdx = r0x104E 
013F   00??           02438         MOVWF   r0x1007
0140   04??           02439         IORWF   r0x1006,W
                      02440 ;; >>> /home/sdcc-builder/build/sdcc-build/orig/sdcc/src/pic14/gen.c:4585:genOr
                      02441 ;;      1027
                      02442 ;;      1045  _PORTE   offset=0
0141   0??? 0???      02443         BANKSEL _PORTE
0143   00??           02444         MOVWF   _PORTE
                      02445 ;;; /home/sdcc-builder/build/sdcc-build/orig/sdcc/src/pic14/gen.c:2358:resultRemat *{*
                      02446 ;;; /home/sdcc-builder/build/sdcc-build/orig/sdcc/src/pic14/gen.c:2802:genLabel *{*
                      02447 ;; ***  genLabel  2805
                      02448 ;;; /home/sdcc-builder/build/sdcc-build/orig/sdcc/src/pic14/gen.c:2358:resultRemat *{*
                      02449 ;;; /home/sdcc-builder/build/sdcc-build/orig/sdcc/src/pic14/gen.c:2570:genEndFunction *{*
                      02450 ;; ***  genEndFunction  2572
0144                  02451 _00169_DS_:
                      02452         .line   76; "gpio.c"    }
0144   0008           02453         RETURN  
                      02454 ; exit point of _GPIO_SetPortPinState
                      02455 ;;; /home/sdcc-builder/build/sdcc-build/orig/sdcc/src/pic14/gen.c:7710:genpic14Code *{*
                      02456 
                      02457 ;***
                      02458 ;  pBlock Stats: dbName = C
                      02459 ;***
                      02460 ;has an exit
                      02461 ;; Starting pCode block
                      02462 ;;; /home/sdcc-builder/build/sdcc-build/orig/sdcc/src/pic14/gen.c:2358:resultRemat *{*
                      02463 ;;; /home/sdcc-builder/build/sdcc-build/orig/sdcc/src/pic14/gen.c:2802:genLabel *{*
                      02464 ;; ***  genLabel  2805
                      02465 ;;; /home/sdcc-builder/build/sdcc-build/orig/sdcc/src/pic14/gen.c:2358:resultRemat *{*
                      02466 ;;; /home/sdcc-builder/build/sdcc-build/orig/sdcc/src/pic14/gen.c:2382:genFunction *{*
                      02467 ;; ***  genFunction  2384 curr label offset=52previous max_key=2 
                      02468 S_gpio__GPIO_Update     code
0000                  02469 _GPIO_Update:
                      02470 ; 2 exit points
                      02471 ;;; /home/sdcc-builder/build/sdcc-build/orig/sdcc/src/pic14/gen.c:2358:resultRemat *{*
                      02472 ;;; /home/sdcc-builder/build/sdcc-build/orig/sdcc/src/pic14/gen.c:2802:genLabel *{*
                      02473 ;; ***  genLabel  2805
gpasm-1.5.0 #1285 (Sep 12 2016) obj\Debug\gpi   7-19-2020  03:04:18         PAGE 48


LOC    OBJECT CODE    LINE  SOURCE TEXT
  VALUE

                      02474 ;;; /home/sdcc-builder/build/sdcc-build/orig/sdcc/src/pic14/gen.c:2358:resultRemat *{*
                      02475 ;;; /home/sdcc-builder/build/sdcc-build/orig/sdcc/src/pic14/gen.c:2570:genEndFunction *{*
                      02476 ;; ***  genEndFunction  2572
                      02477         .line   49; "gpio.c"    { /* Should do nothing */ }
0000   0008           02478         RETURN  
                      02479 ; exit point of _GPIO_Update
                      02480 ;;; /home/sdcc-builder/build/sdcc-build/orig/sdcc/src/pic14/gen.c:7710:genpic14Code *{*
                      02481 
                      02482 ;***
                      02483 ;  pBlock Stats: dbName = C
                      02484 ;***
                      02485 ;has an exit
                      02486 ;functions called:
                      02487 ;   _GPIO_InitPortPin
                      02488 ;   _GPIO_InitPortPin
                      02489 ;5 compiler assigned registers:
                      02490 ;   r0x1017
                      02491 ;   STK00
                      02492 ;   r0x1018
                      02493 ;   r0x1019
                      02494 ;   STK01
                      02495 ;; Starting pCode block
                      02496 ;;; /home/sdcc-builder/build/sdcc-build/orig/sdcc/src/pic14/gen.c:2358:resultRemat *{*
                      02497 ;;; /home/sdcc-builder/build/sdcc-build/orig/sdcc/src/pic14/gen.c:2802:genLabel *{*
                      02498 ;; ***  genLabel  2805
                      02499 ;;; /home/sdcc-builder/build/sdcc-build/orig/sdcc/src/pic14/gen.c:2358:resultRemat *{*
                      02500 ;;; /home/sdcc-builder/build/sdcc-build/orig/sdcc/src/pic14/gen.c:2382:genFunction *{*
                      02501 ;; ***  genFunction  2384 curr label offset=4previous max_key=44 
                      02502 S_gpio__GPIO_InitPort   code
0000                  02503 _GPIO_InitPort:
                      02504 ; 2 exit points
                      02505 ;;; /home/sdcc-builder/build/sdcc-build/orig/sdcc/src/pic14/gen.c:2358:resultRemat *{*
                      02506 ;;; /home/sdcc-builder/build/sdcc-build/orig/sdcc/src/pic14/gen.c:7642:genReceive *{*
                      02507 ;; ***  genReceive  7643
                      02508 ;;      708 register type nRegs=1
                      02509 ;;; /home/sdcc-builder/build/sdcc-build/orig/sdcc/src/pic14/gen.c:1929:assignResultValue *{*
                      02510 ;; ***  assignResultValue  1931
                      02511 ;;      line = 1933 result -=-, size=0, left AOP_REG=r0x104A, size=1, right -=-, size=0
                      02512 ;; >>> /home/sdcc-builder/build/sdcc-build/orig/sdcc/src/pic14/gen.c:1407:movwf
                      02513 ;;      1126 rIdx = r0x104A 
                      02514         .line   38; "gpio.c"    void GPIO_InitPort(tPort port, tPortDirection direction)
0000   0??? 0???      02515         BANKSEL r0x1017
0002   00??           02516         MOVWF   r0x1017
                      02517 ;;; /home/sdcc-builder/build/sdcc-build/orig/sdcc/src/pic14/gen.c:2358:resultRemat *{*
                      02518 ;;; /home/sdcc-builder/build/sdcc-build/orig/sdcc/src/pic14/gen.c:7642:genReceive *{*
                      02519 ;; ***  genReceive  7643
                      02520 ;;      708 register type nRegs=1
                      02521 ;;; /home/sdcc-builder/build/sdcc-build/orig/sdcc/src/pic14/gen.c:1929:assignResultValue *{*
                      02522 ;; ***  assignResultValue  1931
                      02523 ;;      line = 1933 result -=-, size=0, left AOP_REG=r0x104B, size=1, right -=-, size=0
                      02524 ;; >>> /home/sdcc-builder/build/sdcc-build/orig/sdcc/src/pic14/gen.c:1437:get_returnvalue
                      02525 ;; ***  popRegFromIdx,1059  , rIdx=0x7f
0003   08??           02526         MOVF    STK00,W
gpasm-1.5.0 #1285 (Sep 12 2016) obj\Debug\gpi   7-19-2020  03:04:18         PAGE 49


LOC    OBJECT CODE    LINE  SOURCE TEXT
  VALUE

                      02527 ;; >>> /home/sdcc-builder/build/sdcc-build/orig/sdcc/src/pic14/gen.c:1407:movwf
                      02528 ;;      1126 rIdx = r0x104B 
0004   00??           02529         MOVWF   r0x1018
                      02530 ;;; /home/sdcc-builder/build/sdcc-build/orig/sdcc/src/pic14/gen.c:2358:resultRemat *{*
                      02531 ;;; /home/sdcc-builder/build/sdcc-build/orig/sdcc/src/pic14/gen.c:7192:genAssign *{*
                      02532 ;; ***  genAssign  7193
                      02533 ;;      708 register type nRegs=1
                      02534 ;;      line = 7202 result AOP_REG=r0x104C, size=1, left -=-, size=0, right AOP_LIT=0x00, size=1
                      02535 ;; ***  genAssign  7286
                      02536 ;; >>> /home/sdcc-builder/build/sdcc-build/orig/sdcc/src/pic14/gen.c:7298:genAssign
                      02537 ;;      1126 rIdx = r0x104C 
                      02538         .line   42; "gpio.c"    for (i = 0; i < 8; i++)
0005   01??           02539         CLRF    r0x1019
                      02540 ;;; /home/sdcc-builder/build/sdcc-build/orig/sdcc/src/pic14/gen.c:2358:resultRemat *{*
                      02541 ;;; /home/sdcc-builder/build/sdcc-build/orig/sdcc/src/pic14/gen.c:2802:genLabel *{*
                      02542 ;; ***  genLabel  2805
                      02543 ;;; /home/sdcc-builder/build/sdcc-build/orig/sdcc/src/pic14/gen.c:2358:resultRemat *{*
                      02544 ;;; /home/sdcc-builder/build/sdcc-build/orig/sdcc/src/pic14/gen.c:2358:resultRemat *{*
                      02545 ;;; /home/sdcc-builder/build/sdcc-build/orig/sdcc/src/pic14/gen.c:2358:resultRemat *{*
                      02546 ;;; /home/sdcc-builder/build/sdcc-build/orig/sdcc/src/pic14/gen.c:2358:resultRemat *{*
                      02547 ;;; /home/sdcc-builder/build/sdcc-build/orig/sdcc/src/pic14/gen.c:2108:genCall *{*
                      02548 ;; ***  genCall  2110
                      02549 ;;      708 register type nRegs=1
                      02550 ;;      708 register type nRegs=1
                      02551 ;;      708 register type nRegs=1
                      02552 ;;      708 register type nRegs=1
                      02553 ;;      2158 left AOP_REG
                      02554 ;;; /home/sdcc-builder/build/sdcc-build/orig/sdcc/src/pic14/gen.c:1357:mov2w_op *{*
                      02555 ;; ***  mov2w  1395  offset=0
                      02556 ;; >>> /home/sdcc-builder/build/sdcc-build/orig/sdcc/src/pic14/gen.c:1400:mov2w
                      02557 ;;      1126 rIdx = r0x104B 
0006                  02558 _00154_DS_:
                      02559         .line   44; "gpio.c"    GPIO_InitPortPin(port, i, direction);
0006   0??? 0???      02560         BANKSEL r0x1018
0008   08??           02561         MOVF    r0x1018,W
                      02562 ;;      708 register type nRegs=1
                      02563 ;;      2158 left AOP_REG
                      02564 ;; >>> /home/sdcc-builder/build/sdcc-build/orig/sdcc/src/pic14/gen.c:2166:genCall
                      02565 ;; ***  popRegFromIdx,1059  , rIdx=0x7e
0009   00??           02566         MOVWF   STK01
                      02567 ;;; /home/sdcc-builder/build/sdcc-build/orig/sdcc/src/pic14/gen.c:1357:mov2w_op *{*
                      02568 ;; ***  mov2w  1395  offset=0
                      02569 ;; >>> /home/sdcc-builder/build/sdcc-build/orig/sdcc/src/pic14/gen.c:1400:mov2w
                      02570 ;;      1126 rIdx = r0x104C 
000A   08??           02571         MOVF    r0x1019,W
                      02572 ;;      708 register type nRegs=1
                      02573 ;;      2158 left AOP_REG
                      02574 ;; >>> /home/sdcc-builder/build/sdcc-build/orig/sdcc/src/pic14/gen.c:2166:genCall
                      02575 ;; ***  popRegFromIdx,1059  , rIdx=0x7f
000B   00??           02576         MOVWF   STK00
                      02577 ;;; /home/sdcc-builder/build/sdcc-build/orig/sdcc/src/pic14/gen.c:1357:mov2w_op *{*
                      02578 ;; ***  mov2w  1395  offset=0
                      02579 ;; >>> /home/sdcc-builder/build/sdcc-build/orig/sdcc/src/pic14/gen.c:1400:mov2w
gpasm-1.5.0 #1285 (Sep 12 2016) obj\Debug\gpi   7-19-2020  03:04:18         PAGE 50


LOC    OBJECT CODE    LINE  SOURCE TEXT
  VALUE

                      02580 ;;      1126 rIdx = r0x104A 
000C   08??           02581         MOVF    r0x1017,W
                      02582 ;; >>> /home/sdcc-builder/build/sdcc-build/orig/sdcc/src/pic14/gen.c:2207:genCall
000D   0??? 0???      02583         PAGESEL _GPIO_InitPortPin
                      02584 ;; >>> /home/sdcc-builder/build/sdcc-build/orig/sdcc/src/pic14/gen.c:2215:genCall
000F   2???           02585         CALL    _GPIO_InitPortPin
                      02586 ;; >>> /home/sdcc-builder/build/sdcc-build/orig/sdcc/src/pic14/gen.c:2223:genCall
0010   0??? 0???      02587         PAGESEL $
                      02588 ;;; /home/sdcc-builder/build/sdcc-build/orig/sdcc/src/pic14/gen.c:2358:resultRemat *{*
                      02589 ;; ***  genPlus  707
                      02590 ;;; /home/sdcc-builder/build/sdcc-build/orig/sdcc/src/pic14/genarith.c:708:genPlus *{*
                      02591 ;;      708 register type nRegs=1
                      02592 ;;      589
                      02593 ;;      line = 714 result AOP_REG=r0x104C, size=1, left AOP_REG=r0x104C, size=1, right AOP_LIT=0x01, siz
                            e=1
                      02594 ;;; /home/sdcc-builder/build/sdcc-build/orig/sdcc/src/pic14/genarith.c:159:genPlusIncr *{*
                      02595 ;; ***  genPlusIncr  161
                      02596 ;;      result AOP_REG, left AOP_REG, right AOP_LIT
                      02597 ;;      genPlusIncr  173
                      02598 ;; >>> /home/sdcc-builder/build/sdcc-build/orig/sdcc/src/pic14/genarith.c:185:genPlusIncr
                      02599 ;;      1126 rIdx = r0x104C 
                      02600         .line   42; "gpio.c"    for (i = 0; i < 8; i++)
0012   0??? 0???      02601         BANKSEL r0x1019
0014   0A??           02602         INCF    r0x1019,F
                      02603 ;;; /home/sdcc-builder/build/sdcc-build/orig/sdcc/src/pic14/gen.c:2358:resultRemat *{*
                      02604 ;;; /home/sdcc-builder/build/sdcc-build/orig/sdcc/src/pic14/gen.c:3652:genCmpLt *{*
                      02605 ;; ***  genCmpLt  3653
                      02606 ;;      708 register type nRegs=1
                      02607 ;;; /home/sdcc-builder/build/sdcc-build/orig/sdcc/src/pic14/gen.c:3354:genCmp *{*
                      02608 ;;unsigned compare: left < lit(0x8=8), size=1
                      02609 ;; >>> /home/sdcc-builder/build/sdcc-build/orig/sdcc/src/pic14/gen.c:3325:pic14_mov2w_regOrLit
0015   3008           02610         MOVLW   0x08
                      02611 ;; >>> /home/sdcc-builder/build/sdcc-build/orig/sdcc/src/pic14/gen.c:3492:genCmp
                      02612 ;;      1126 rIdx = r0x104C 
0016   02??           02613         SUBWF   r0x1019,W
                      02614 ;;; /home/sdcc-builder/build/sdcc-build/orig/sdcc/src/pic14/gen.c:3297:genSkipc *{*
                      02615 ;; >>> /home/sdcc-builder/build/sdcc-build/orig/sdcc/src/pic14/gen.c:3304:genSkipc
0017   1C03           02616         BTFSS   STATUS,0
                      02617 ;; >>> /home/sdcc-builder/build/sdcc-build/orig/sdcc/src/pic14/gen.c:3306:genSkipc
                      02618 ;; ***  popGetLabel  key=2, label offset 52
0018   2???           02619         GOTO    _00154_DS_
                      02620 ;;genSkipc:3307: created from rifx:00000000047A57B0
                      02621 ;;; /home/sdcc-builder/build/sdcc-build/orig/sdcc/src/pic14/gen.c:2358:resultRemat *{*
                      02622 ;;; /home/sdcc-builder/build/sdcc-build/orig/sdcc/src/pic14/gen.c:2358:resultRemat *{*
                      02623 ;;; /home/sdcc-builder/build/sdcc-build/orig/sdcc/src/pic14/gen.c:2802:genLabel *{*
                      02624 ;; ***  genLabel  2805
                      02625 ;;; /home/sdcc-builder/build/sdcc-build/orig/sdcc/src/pic14/gen.c:2358:resultRemat *{*
                      02626 ;;; /home/sdcc-builder/build/sdcc-build/orig/sdcc/src/pic14/gen.c:2570:genEndFunction *{*
                      02627 ;; ***  genEndFunction  2572
                      02628         .line   46; "gpio.c"    }
0019   0008           02629         RETURN  
                      02630 ; exit point of _GPIO_InitPort
                      02631 ;;; /home/sdcc-builder/build/sdcc-build/orig/sdcc/src/pic14/gen.c:7710:genpic14Code *{*
gpasm-1.5.0 #1285 (Sep 12 2016) obj\Debug\gpi   7-19-2020  03:04:18         PAGE 51


LOC    OBJECT CODE    LINE  SOURCE TEXT
  VALUE

                      02632 
                      02633 ;***
                      02634 ;  pBlock Stats: dbName = C
                      02635 ;***
                      02636 ;has an exit
                      02637 ;7 compiler assigned registers:
                      02638 ;   r0x1012
                      02639 ;   STK00
                      02640 ;   r0x1013
                      02641 ;   STK01
                      02642 ;   r0x1014
                      02643 ;   r0x1015
                      02644 ;   r0x1016
                      02645 ;; Starting pCode block
                      02646 ;;; /home/sdcc-builder/build/sdcc-build/orig/sdcc/src/pic14/gen.c:2358:resultRemat *{*
                      02647 ;;; /home/sdcc-builder/build/sdcc-build/orig/sdcc/src/pic14/gen.c:2802:genLabel *{*
                      02648 ;; ***  genLabel  2805
                      02649 ;;; /home/sdcc-builder/build/sdcc-build/orig/sdcc/src/pic14/gen.c:2358:resultRemat *{*
                      02650 ;;; /home/sdcc-builder/build/sdcc-build/orig/sdcc/src/pic14/gen.c:2382:genFunction *{*
                      02651 ;; ***  genFunction  2384 curr label offset=0previous max_key=0 
                      02652 S_gpio__GPIO_InitPortPin        code
0000                  02653 _GPIO_InitPortPin:
                      02654 ; 2 exit points
                      02655 ;;; /home/sdcc-builder/build/sdcc-build/orig/sdcc/src/pic14/gen.c:2358:resultRemat *{*
                      02656 ;;; /home/sdcc-builder/build/sdcc-build/orig/sdcc/src/pic14/gen.c:7642:genReceive *{*
                      02657 ;; ***  genReceive  7643
                      02658 ;;      708 register type nRegs=1
                      02659 ;;; /home/sdcc-builder/build/sdcc-build/orig/sdcc/src/pic14/gen.c:1929:assignResultValue *{*
                      02660 ;; ***  assignResultValue  1931
                      02661 ;;      line = 1933 result -=-, size=0, left AOP_REG=r0x1045, size=1, right -=-, size=0
                      02662 ;; >>> /home/sdcc-builder/build/sdcc-build/orig/sdcc/src/pic14/gen.c:1407:movwf
                      02663 ;;      1126 rIdx = r0x1045 
                      02664         .line   10; "gpio.c"    void GPIO_InitPortPin(tPort port, unsigned char pin, tPortDirection dire
                            ction)
0000   0??? 0???      02665         BANKSEL r0x1012
0002   00??           02666         MOVWF   r0x1012
                      02667 ;;; /home/sdcc-builder/build/sdcc-build/orig/sdcc/src/pic14/gen.c:2358:resultRemat *{*
                      02668 ;;; /home/sdcc-builder/build/sdcc-build/orig/sdcc/src/pic14/gen.c:7642:genReceive *{*
                      02669 ;; ***  genReceive  7643
                      02670 ;;      708 register type nRegs=1
                      02671 ;;; /home/sdcc-builder/build/sdcc-build/orig/sdcc/src/pic14/gen.c:1929:assignResultValue *{*
                      02672 ;; ***  assignResultValue  1931
                      02673 ;;      line = 1933 result -=-, size=0, left AOP_REG=r0x1046, size=1, right -=-, size=0
                      02674 ;; >>> /home/sdcc-builder/build/sdcc-build/orig/sdcc/src/pic14/gen.c:1437:get_returnvalue
                      02675 ;; ***  popRegFromIdx,1059  , rIdx=0x7f
0003   08??           02676         MOVF    STK00,W
                      02677 ;; >>> /home/sdcc-builder/build/sdcc-build/orig/sdcc/src/pic14/gen.c:1407:movwf
                      02678 ;;      1126 rIdx = r0x1046 
0004   00??           02679         MOVWF   r0x1013
                      02680 ;;; /home/sdcc-builder/build/sdcc-build/orig/sdcc/src/pic14/gen.c:2358:resultRemat *{*
                      02681 ;;; /home/sdcc-builder/build/sdcc-build/orig/sdcc/src/pic14/gen.c:7642:genReceive *{*
                      02682 ;; ***  genReceive  7643
                      02683 ;;      708 register type nRegs=1
gpasm-1.5.0 #1285 (Sep 12 2016) obj\Debug\gpi   7-19-2020  03:04:18         PAGE 52


LOC    OBJECT CODE    LINE  SOURCE TEXT
  VALUE

                      02684 ;;; /home/sdcc-builder/build/sdcc-build/orig/sdcc/src/pic14/gen.c:1929:assignResultValue *{*
                      02685 ;; ***  assignResultValue  1931
                      02686 ;;      line = 1933 result -=-, size=0, left AOP_REG=r0x1047, size=1, right -=-, size=0
                      02687 ;; >>> /home/sdcc-builder/build/sdcc-build/orig/sdcc/src/pic14/gen.c:1437:get_returnvalue
                      02688 ;; ***  popRegFromIdx,1059  , rIdx=0x7e
0005   08??           02689         MOVF    STK01,W
                      02690 ;; >>> /home/sdcc-builder/build/sdcc-build/orig/sdcc/src/pic14/gen.c:1407:movwf
                      02691 ;;      1126 rIdx = r0x1047 
0006   00??           02692         MOVWF   r0x1014
                      02693 ;;; /home/sdcc-builder/build/sdcc-build/orig/sdcc/src/pic14/gen.c:2358:resultRemat *{*
                      02694 ;;; /home/sdcc-builder/build/sdcc-build/orig/sdcc/src/pic14/gen.c:3616:genCmpGt *{*
                      02695 ;; ***  genCmpGt  3617
                      02696 ;;      708 register type nRegs=1
                      02697 ;;; /home/sdcc-builder/build/sdcc-build/orig/sdcc/src/pic14/gen.c:3354:genCmp *{*
                      02698 ;;swapping arguments (AOP_TYPEs 1/2)
                      02699 ;;unsigned compare: left >= lit(0x5=5), size=1
                      02700 ;; >>> /home/sdcc-builder/build/sdcc-build/orig/sdcc/src/pic14/gen.c:3325:pic14_mov2w_regOrLit
                      02701         .line   12; "gpio.c"    switch(port)
0007   3005           02702         MOVLW   0x05
                      02703 ;; >>> /home/sdcc-builder/build/sdcc-build/orig/sdcc/src/pic14/gen.c:3492:genCmp
                      02704 ;;      1126 rIdx = r0x1045 
0008   02??           02705         SUBWF   r0x1012,W
                      02706 ;;; /home/sdcc-builder/build/sdcc-build/orig/sdcc/src/pic14/gen.c:3297:genSkipc *{*
                      02707 ;; >>> /home/sdcc-builder/build/sdcc-build/orig/sdcc/src/pic14/gen.c:3302:genSkipc
0009   1803           02708         BTFSC   STATUS,0
                      02709 ;; >>> /home/sdcc-builder/build/sdcc-build/orig/sdcc/src/pic14/gen.c:3306:genSkipc
                      02710 ;; ***  popGetLabel  key=7, label offset 4
000A   2???           02711         GOTO    _00111_DS_
                      02712 ;;genSkipc:3307: created from rifx:00000000047A57B0
                      02713 ;;; /home/sdcc-builder/build/sdcc-build/orig/sdcc/src/pic14/gen.c:2358:resultRemat *{*
                      02714 ;;; /home/sdcc-builder/build/sdcc-build/orig/sdcc/src/pic14/gen.c:2358:resultRemat *{*
                      02715 ;;; /home/sdcc-builder/build/sdcc-build/orig/sdcc/src/pic14/gen.c:7337:genJumpTab *{*
                      02716 ;; ***  genJumpTab  7338
                      02717 ;;      708 register type nRegs=1
                      02718 ;; >>> /home/sdcc-builder/build/sdcc-build/orig/sdcc/src/pic14/gen.c:7353:genJumpTab
                      02719 ;; ***  popGetLabel  key=14, label offset 4
000B   30??           02720         MOVLW   HIGH(_00118_DS_)
                      02721 ;; >>> /home/sdcc-builder/build/sdcc-build/orig/sdcc/src/pic14/gen.c:7354:genJumpTab
000C   1283 1303      02722         BANKSEL PCLATH
000E   008A           02723         MOVWF   PCLATH
                      02724 ;; >>> /home/sdcc-builder/build/sdcc-build/orig/sdcc/src/pic14/gen.c:7355:genJumpTab
                      02725 ;; ***  popGetLabel  key=14, label offset 4
000F   30??           02726         MOVLW   _00118_DS_
                      02727 ;; >>> /home/sdcc-builder/build/sdcc-build/orig/sdcc/src/pic14/gen.c:7356:genJumpTab
                      02728 ;;      1126 rIdx = r0x1045 
0010   0??? 0???      02729         BANKSEL r0x1012
0012   07??           02730         ADDWF   r0x1012,W
                      02731 ;; >>> /home/sdcc-builder/build/sdcc-build/orig/sdcc/src/pic14/gen.c:7357:genJumpTab
0013   1C03           02732         BTFSS   STATUS,0
0014   2???           02733         GOTO    _00003_DS_
                      02734 ;; >>> /home/sdcc-builder/build/sdcc-build/orig/sdcc/src/pic14/gen.c:7358:genJumpTab
0015   1283 1303      02735         BANKSEL PCLATH
0017   0A8A           02736         INCF    PCLATH,F
gpasm-1.5.0 #1285 (Sep 12 2016) obj\Debug\gpi   7-19-2020  03:04:18         PAGE 53


LOC    OBJECT CODE    LINE  SOURCE TEXT
  VALUE

                      02737 ;; >>> /home/sdcc-builder/build/sdcc-build/orig/sdcc/src/pic14/gen.c:7359:genJumpTab
0018                  02738 _00003_DS_:
0018   0082           02739         MOVWF   PCL
                      02740 ;; >>> /home/sdcc-builder/build/sdcc-build/orig/sdcc/src/pic14/gen.c:7368:genJumpTab
                      02741 ;; ***  popGetLabel  key=1, label offset 4
0019                  02742 _00118_DS_:
0019   2???           02743         GOTO    _00105_DS_
                      02744 ;; >>> /home/sdcc-builder/build/sdcc-build/orig/sdcc/src/pic14/gen.c:7368:genJumpTab
                      02745 ;; ***  popGetLabel  key=2, label offset 4
001A   2???           02746         GOTO    _00106_DS_
                      02747 ;; >>> /home/sdcc-builder/build/sdcc-build/orig/sdcc/src/pic14/gen.c:7368:genJumpTab
                      02748 ;; ***  popGetLabel  key=3, label offset 4
001B   2???           02749         GOTO    _00107_DS_
                      02750 ;; >>> /home/sdcc-builder/build/sdcc-build/orig/sdcc/src/pic14/gen.c:7368:genJumpTab
                      02751 ;; ***  popGetLabel  key=4, label offset 4
001C   2???           02752         GOTO    _00108_DS_
                      02753 ;; >>> /home/sdcc-builder/build/sdcc-build/orig/sdcc/src/pic14/gen.c:7368:genJumpTab
                      02754 ;; ***  popGetLabel  key=5, label offset 4
001D   2???           02755         GOTO    _00109_DS_
                      02756 ;;; /home/sdcc-builder/build/sdcc-build/orig/sdcc/src/pic14/gen.c:2358:resultRemat *{*
                      02757 ;;; /home/sdcc-builder/build/sdcc-build/orig/sdcc/src/pic14/gen.c:2802:genLabel *{*
                      02758 ;; ***  genLabel  2805
                      02759 ;;; /home/sdcc-builder/build/sdcc-build/orig/sdcc/src/pic14/gen.c:2358:resultRemat *{*
                      02760 ;;; /home/sdcc-builder/build/sdcc-build/orig/sdcc/src/pic14/gen.c:7386:genCast *{*
                      02761 ;; ***  genCast  7387
                      02762 ;;      708 register type nRegs=1
                      02763 ;;      708 register type nRegs=1
                      02764 ;;      line = 7395 result AOP_REG=r0x1045, size=1, left -=-, size=0, right AOP_REG=r0x1046, size=1
                      02765 ;; ***  genCast  7537
                      02766 ;; >>> /home/sdcc-builder/build/sdcc-build/orig/sdcc/src/pic14/gen.c:7561:genCast
                      02767 ;;      1126 rIdx = r0x1046 
001E                  02768 _00105_DS_:
                      02769         .line   15; "gpio.c"    SET_REGISTER_PIN(TRISA, pin, direction);
001E   0??? 0???      02770         BANKSEL r0x1013
                      02771 ;;118   MOVF    r0x1013,W
                      02772 ;; >>> /home/sdcc-builder/build/sdcc-build/orig/sdcc/src/pic14/gen.c:7562:genCast
                      02773 ;;      1126 rIdx = r0x1045 
                      02774 ;;; /home/sdcc-builder/build/sdcc-build/orig/sdcc/src/pic14/gen.c:2358:resultRemat *{*
                      02775 ;;; /home/sdcc-builder/build/sdcc-build/orig/sdcc/src/pic14/gen.c:5667:genGenericShift *{*
                      02776 ;; ***  genGenericShift  5670
                      02777 ;;      708 register type nRegs=1
                      02778 ;;      708 register type nRegs=1
                      02779 ;; ***  mov2w  1395  offset=0
                      02780 ;; >>> /home/sdcc-builder/build/sdcc-build/orig/sdcc/src/pic14/gen.c:1398:mov2w
0020   3001           02781         MOVLW   0x01
                      02782 ;; >>> /home/sdcc-builder/build/sdcc-build/orig/sdcc/src/pic14/gen.c:1407:movwf
                      02783 ;;      1126 rIdx = r0x1048 
0021   00??           02784         MOVWF   r0x1015
                      02785 ;; ***  addSign  1087
                      02786 ;;; /home/sdcc-builder/build/sdcc-build/orig/sdcc/src/pic14/genarith.c:1088:addSign *{*
                      02787 ;; ***  mov2w  1395  offset=0
                      02788 ;; >>> /home/sdcc-builder/build/sdcc-build/orig/sdcc/src/pic14/gen.c:1400:mov2w
                      02789 ;;      1126 rIdx = r0x1045 
gpasm-1.5.0 #1285 (Sep 12 2016) obj\Debug\gpi   7-19-2020  03:04:18         PAGE 54


LOC    OBJECT CODE    LINE  SOURCE TEXT
  VALUE

                      02790 ;;117   MOVF    r0x1012,W
0022   08??           02791         MOVF    r0x1013,W
0023   00??           02792         MOVWF   r0x1012
                      02793 ;; >>> /home/sdcc-builder/build/sdcc-build/orig/sdcc/src/pic14/gen.c:5738:genGenericShift
0024   1B??           02794         BTFSC   r0x1012,7
                      02795 ;; >>> /home/sdcc-builder/build/sdcc-build/orig/sdcc/src/pic14/gen.c:5739:genGenericShift
                      02796 ;; ***  popGetLabel  key=17, label offset 4
0025   2???           02797         GOTO    _00122_DS_
                      02798 ;; >>> /home/sdcc-builder/build/sdcc-build/orig/sdcc/src/pic14/gen.c:5741:genGenericShift
0026   3C00           02799         SUBLW   0x00
                      02800 ;; >>> /home/sdcc-builder/build/sdcc-build/orig/sdcc/src/pic14/gen.c:5743:genGenericShift
0027   1903           02801         BTFSC   STATUS,2
                      02802 ;; >>> /home/sdcc-builder/build/sdcc-build/orig/sdcc/src/pic14/gen.c:5744:genGenericShift
                      02803 ;; ***  popGetLabel  key=16, label offset 4
0028   2???           02804         GOTO    _00120_DS_
                      02805 ;;; /home/sdcc-builder/build/sdcc-build/orig/sdcc/src/pic14/gen.c:5618:genMultiAsm *{*
                      02806 ;; ***  genMultiAsm  5619
                      02807 ;; >>> /home/sdcc-builder/build/sdcc-build/orig/sdcc/src/pic14/gen.c:5636:genMultiAsm
                      02808 ;;      1126 rIdx = r0x1048 
0029                  02809 _00119_DS_:
0029   0??? 0???      02810         BANKSEL r0x1015
002B   0D??           02811         RLF     r0x1015,F
                      02812 ;; >>> /home/sdcc-builder/build/sdcc-build/orig/sdcc/src/pic14/gen.c:5750:genGenericShift
002C   3E01           02813         ADDLW   0x01
                      02814 ;; >>> /home/sdcc-builder/build/sdcc-build/orig/sdcc/src/pic14/gen.c:5751:genGenericShift
002D   1C03           02815         BTFSS   STATUS,0
                      02816 ;; >>> /home/sdcc-builder/build/sdcc-build/orig/sdcc/src/pic14/gen.c:5752:genGenericShift
                      02817 ;; ***  popGetLabel  key=15, label offset 4
002E   2???           02818         GOTO    _00119_DS_
                      02819 ;; >>> /home/sdcc-builder/build/sdcc-build/orig/sdcc/src/pic14/gen.c:5761:genGenericShift
                      02820 ;; ***  popGetLabel  key=16, label offset 4
002F   2???           02821         GOTO    _00120_DS_
                      02822 ;;; /home/sdcc-builder/build/sdcc-build/orig/sdcc/src/pic14/gen.c:5649:loadSignToC *{*
                      02823 ;; >>> /home/sdcc-builder/build/sdcc-build/orig/sdcc/src/pic14/gen.c:5652:loadSignToC
0030                  02824 _00122_DS_:
0030   1003           02825         BCF     STATUS,0
                      02826 ;; >>> /home/sdcc-builder/build/sdcc-build/orig/sdcc/src/pic14/gen.c:5653:loadSignToC
0031   0??? 0???      02827         BANKSEL r0x1015
0033   1B??           02828         BTFSC   r0x1015,7
                      02829 ;; >>> /home/sdcc-builder/build/sdcc-build/orig/sdcc/src/pic14/gen.c:5654:loadSignToC
0034   1403           02830         BSF     STATUS,0
                      02831 ;;; /home/sdcc-builder/build/sdcc-build/orig/sdcc/src/pic14/gen.c:5618:genMultiAsm *{*
                      02832 ;; ***  genMultiAsm  5619
                      02833 ;; >>> /home/sdcc-builder/build/sdcc-build/orig/sdcc/src/pic14/gen.c:5636:genMultiAsm
                      02834 ;;      1126 rIdx = r0x1048 
0035   0C??           02835         RRF     r0x1015,F
                      02836 ;; >>> /home/sdcc-builder/build/sdcc-build/orig/sdcc/src/pic14/gen.c:5772:genGenericShift
0036   3E01           02837         ADDLW   0x01
                      02838 ;; >>> /home/sdcc-builder/build/sdcc-build/orig/sdcc/src/pic14/gen.c:5773:genGenericShift
0037   1C03           02839         BTFSS   STATUS,0
                      02840 ;; >>> /home/sdcc-builder/build/sdcc-build/orig/sdcc/src/pic14/gen.c:5774:genGenericShift
                      02841 ;; ***  popGetLabel  key=18, label offset 4
0038   2???           02842         GOTO    _00122_DS_
gpasm-1.5.0 #1285 (Sep 12 2016) obj\Debug\gpi   7-19-2020  03:04:18         PAGE 55


LOC    OBJECT CODE    LINE  SOURCE TEXT
  VALUE

                      02843 ;;; /home/sdcc-builder/build/sdcc-build/orig/sdcc/src/pic14/gen.c:2358:resultRemat *{*
                      02844 ;;; /home/sdcc-builder/build/sdcc-build/orig/sdcc/src/pic14/gen.c:1609:genCpl *{*
                      02845 ;; ***  genCpl  1611
                      02846 ;;      708 register type nRegs=1
                      02847 ;;      708 register type nRegs=1
                      02848 ;; >>> /home/sdcc-builder/build/sdcc-build/orig/sdcc/src/pic14/gen.c:1631:genCpl
                      02849 ;;      1126 rIdx = r0x1048 
0039                  02850 _00120_DS_:
0039   0??? 0???      02851         BANKSEL r0x1015
003B   09??           02852         COMF    r0x1015,W
                      02853 ;; >>> /home/sdcc-builder/build/sdcc-build/orig/sdcc/src/pic14/gen.c:1632:genCpl
                      02854 ;;      1126 rIdx = r0x1045 
003C   00??           02855         MOVWF   r0x1012
                      02856 ;; ***  addSign  1087
                      02857 ;;; /home/sdcc-builder/build/sdcc-build/orig/sdcc/src/pic14/genarith.c:1088:addSign *{*
                      02858 ;;; /home/sdcc-builder/build/sdcc-build/orig/sdcc/src/pic14/gen.c:2358:resultRemat *{*
                      02859 ;;; /home/sdcc-builder/build/sdcc-build/orig/sdcc/src/pic14/gen.c:7386:genCast *{*
                      02860 ;; ***  genCast  7387
                      02861 ;; ***  aopForSym 324
                      02862 ;;      336 sym->rname = _TRISA, size = 1
                      02863 ;;      708 register type nRegs=1
                      02864 ;;      line = 7395 result AOP_REG=r0x1048, size=1, left -=-, size=0, right AOP_DIR=_TRISA, size=1
                      02865 ;; ***  genCast  7537
                      02866 ;; >>> /home/sdcc-builder/build/sdcc-build/orig/sdcc/src/pic14/gen.c:7561:genCast
                      02867 ;;      1027
                      02868 ;;      1045  _TRISA   offset=0
003D   0??? 0???      02869         BANKSEL _TRISA
003F   08??           02870         MOVF    _TRISA,W
                      02871 ;; >>> /home/sdcc-builder/build/sdcc-build/orig/sdcc/src/pic14/gen.c:7562:genCast
                      02872 ;;      1126 rIdx = r0x1048 
0040   0??? 0???      02873         BANKSEL r0x1015
0042   00??           02874         MOVWF   r0x1015
0043   05??           02875         ANDWF   r0x1012,F
                      02876 ;;; /home/sdcc-builder/build/sdcc-build/orig/sdcc/src/pic14/gen.c:2358:resultRemat *{*
                      02877 ;;; /home/sdcc-builder/build/sdcc-build/orig/sdcc/src/pic14/gen.c:5667:genGenericShift *{*
                      02878 ;; ***  genGenericShift  5670
                      02879 ;;      708 register type nRegs=1
                      02880 ;;      708 register type nRegs=1
                      02881 ;;      708 register type nRegs=1
                      02882 ;; ***  mov2w  1395  offset=0
                      02883 ;; >>> /home/sdcc-builder/build/sdcc-build/orig/sdcc/src/pic14/gen.c:1400:mov2w
                      02884 ;;      1126 rIdx = r0x1047 
0044   08??           02885         MOVF    r0x1014,W
                      02886 ;; >>> /home/sdcc-builder/build/sdcc-build/orig/sdcc/src/pic14/gen.c:1407:movwf
                      02887 ;;      1126 rIdx = r0x1048 
0045   00??           02888         MOVWF   r0x1015
                      02889 ;; ***  addSign  1087
                      02890 ;;; /home/sdcc-builder/build/sdcc-build/orig/sdcc/src/pic14/genarith.c:1088:addSign *{*
                      02891 ;; ***  mov2w  1395  offset=0
                      02892 ;; >>> /home/sdcc-builder/build/sdcc-build/orig/sdcc/src/pic14/gen.c:1400:mov2w
                      02893 ;;      1126 rIdx = r0x1046 
0046   08??           02894         MOVF    r0x1013,W
                      02895 ;; >>> /home/sdcc-builder/build/sdcc-build/orig/sdcc/src/pic14/gen.c:5741:genGenericShift
gpasm-1.5.0 #1285 (Sep 12 2016) obj\Debug\gpi   7-19-2020  03:04:18         PAGE 56


LOC    OBJECT CODE    LINE  SOURCE TEXT
  VALUE

0047   3C00           02896         SUBLW   0x00
                      02897 ;; >>> /home/sdcc-builder/build/sdcc-build/orig/sdcc/src/pic14/gen.c:5743:genGenericShift
0048   1903           02898         BTFSC   STATUS,2
                      02899 ;; >>> /home/sdcc-builder/build/sdcc-build/orig/sdcc/src/pic14/gen.c:5744:genGenericShift
                      02900 ;; ***  popGetLabel  key=20, label offset 4
0049   2???           02901         GOTO    _00124_DS_
                      02902 ;;; /home/sdcc-builder/build/sdcc-build/orig/sdcc/src/pic14/gen.c:5618:genMultiAsm *{*
                      02903 ;; ***  genMultiAsm  5619
                      02904 ;; >>> /home/sdcc-builder/build/sdcc-build/orig/sdcc/src/pic14/gen.c:5636:genMultiAsm
                      02905 ;;      1126 rIdx = r0x1048 
004A                  02906 _00123_DS_:
004A   0??? 0???      02907         BANKSEL r0x1015
004C   0D??           02908         RLF     r0x1015,F
                      02909 ;; >>> /home/sdcc-builder/build/sdcc-build/orig/sdcc/src/pic14/gen.c:5750:genGenericShift
004D   3E01           02910         ADDLW   0x01
                      02911 ;; >>> /home/sdcc-builder/build/sdcc-build/orig/sdcc/src/pic14/gen.c:5751:genGenericShift
004E   1C03           02912         BTFSS   STATUS,0
                      02913 ;; >>> /home/sdcc-builder/build/sdcc-build/orig/sdcc/src/pic14/gen.c:5752:genGenericShift
                      02914 ;; ***  popGetLabel  key=19, label offset 4
004F   2???           02915         GOTO    _00123_DS_
                      02916 ;;; /home/sdcc-builder/build/sdcc-build/orig/sdcc/src/pic14/gen.c:2358:resultRemat *{*
                      02917 ;;; /home/sdcc-builder/build/sdcc-build/orig/sdcc/src/pic14/gen.c:7386:genCast *{*
                      02918 ;; ***  genCast  7387
                      02919 ;;      708 register type nRegs=1
                      02920 ;;      708 register type nRegs=1
                      02921 ;;      line = 7395 result AOP_REG=r0x1049, size=1, left -=-, size=0, right AOP_REG=r0x1048, size=1
                      02922 ;; ***  genCast  7537
                      02923 ;; >>> /home/sdcc-builder/build/sdcc-build/orig/sdcc/src/pic14/gen.c:7561:genCast
                      02924 ;;      1126 rIdx = r0x1048 
0050                  02925 _00124_DS_:
0050   0??? 0???      02926         BANKSEL r0x1015
0052   08??           02927         MOVF    r0x1015,W
                      02928 ;; >>> /home/sdcc-builder/build/sdcc-build/orig/sdcc/src/pic14/gen.c:7562:genCast
                      02929 ;;      1126 rIdx = r0x1049 
0053   00??           02930         MOVWF   r0x1016
0054   04??           02931         IORWF   r0x1012,W
                      02932 ;; >>> /home/sdcc-builder/build/sdcc-build/orig/sdcc/src/pic14/gen.c:4585:genOr
                      02933 ;;      1027
                      02934 ;;      1045  _TRISA   offset=0
0055   0??? 0???      02935         BANKSEL _TRISA
0057   00??           02936         MOVWF   _TRISA
                      02937 ;;; /home/sdcc-builder/build/sdcc-build/orig/sdcc/src/pic14/gen.c:2358:resultRemat *{*
                      02938 ;;; /home/sdcc-builder/build/sdcc-build/orig/sdcc/src/pic14/gen.c:2820:genGoto *{*
                      02939 ;; >>> /home/sdcc-builder/build/sdcc-build/orig/sdcc/src/pic14/gen.c:2822:genGoto
                      02940 ;; ***  popGetLabel  key=7, label offset 4
                      02941         .line   16; "gpio.c"    break;
0058   2???           02942         GOTO    _00111_DS_
                      02943 ;;; /home/sdcc-builder/build/sdcc-build/orig/sdcc/src/pic14/gen.c:2358:resultRemat *{*
                      02944 ;;; /home/sdcc-builder/build/sdcc-build/orig/sdcc/src/pic14/gen.c:2802:genLabel *{*
                      02945 ;; ***  genLabel  2805
                      02946 ;;; /home/sdcc-builder/build/sdcc-build/orig/sdcc/src/pic14/gen.c:2358:resultRemat *{*
                      02947 ;;; /home/sdcc-builder/build/sdcc-build/orig/sdcc/src/pic14/gen.c:7386:genCast *{*
                      02948 ;; ***  genCast  7387
gpasm-1.5.0 #1285 (Sep 12 2016) obj\Debug\gpi   7-19-2020  03:04:18         PAGE 57


LOC    OBJECT CODE    LINE  SOURCE TEXT
  VALUE

                      02949 ;;      708 register type nRegs=1
                      02950 ;;      708 register type nRegs=1
                      02951 ;;      line = 7395 result AOP_REG=r0x1045, size=1, left -=-, size=0, right AOP_REG=r0x1046, size=1
                      02952 ;; ***  genCast  7537
                      02953 ;; >>> /home/sdcc-builder/build/sdcc-build/orig/sdcc/src/pic14/gen.c:7561:genCast
                      02954 ;;      1126 rIdx = r0x1046 
                      02955 ;;114   MOVF    r0x1013,W
                      02956 ;; >>> /home/sdcc-builder/build/sdcc-build/orig/sdcc/src/pic14/gen.c:7562:genCast
                      02957 ;;      1126 rIdx = r0x1045 
                      02958 ;;; /home/sdcc-builder/build/sdcc-build/orig/sdcc/src/pic14/gen.c:2358:resultRemat *{*
                      02959 ;;; /home/sdcc-builder/build/sdcc-build/orig/sdcc/src/pic14/gen.c:5667:genGenericShift *{*
                      02960 ;; ***  genGenericShift  5670
                      02961 ;;      708 register type nRegs=1
                      02962 ;;      708 register type nRegs=1
                      02963 ;; ***  mov2w  1395  offset=0
                      02964 ;; >>> /home/sdcc-builder/build/sdcc-build/orig/sdcc/src/pic14/gen.c:1398:mov2w
0059                  02965 _00106_DS_:
                      02966         .line   19; "gpio.c"    SET_REGISTER_PIN(TRISB, pin, direction);
0059   3001           02967         MOVLW   0x01
                      02968 ;; >>> /home/sdcc-builder/build/sdcc-build/orig/sdcc/src/pic14/gen.c:1407:movwf
                      02969 ;;      1126 rIdx = r0x1048 
005A   0??? 0???      02970         BANKSEL r0x1015
005C   00??           02971         MOVWF   r0x1015
                      02972 ;; ***  addSign  1087
                      02973 ;;; /home/sdcc-builder/build/sdcc-build/orig/sdcc/src/pic14/genarith.c:1088:addSign *{*
                      02974 ;; ***  mov2w  1395  offset=0
                      02975 ;; >>> /home/sdcc-builder/build/sdcc-build/orig/sdcc/src/pic14/gen.c:1400:mov2w
                      02976 ;;      1126 rIdx = r0x1045 
                      02977 ;;113   MOVF    r0x1012,W
005D   08??           02978         MOVF    r0x1013,W
005E   00??           02979         MOVWF   r0x1012
                      02980 ;; >>> /home/sdcc-builder/build/sdcc-build/orig/sdcc/src/pic14/gen.c:5738:genGenericShift
005F   1B??           02981         BTFSC   r0x1012,7
                      02982 ;; >>> /home/sdcc-builder/build/sdcc-build/orig/sdcc/src/pic14/gen.c:5739:genGenericShift
                      02983 ;; ***  popGetLabel  key=23, label offset 4
0060   2???           02984         GOTO    _00128_DS_
                      02985 ;; >>> /home/sdcc-builder/build/sdcc-build/orig/sdcc/src/pic14/gen.c:5741:genGenericShift
0061   3C00           02986         SUBLW   0x00
                      02987 ;; >>> /home/sdcc-builder/build/sdcc-build/orig/sdcc/src/pic14/gen.c:5743:genGenericShift
0062   1903           02988         BTFSC   STATUS,2
                      02989 ;; >>> /home/sdcc-builder/build/sdcc-build/orig/sdcc/src/pic14/gen.c:5744:genGenericShift
                      02990 ;; ***  popGetLabel  key=22, label offset 4
0063   2???           02991         GOTO    _00126_DS_
                      02992 ;;; /home/sdcc-builder/build/sdcc-build/orig/sdcc/src/pic14/gen.c:5618:genMultiAsm *{*
                      02993 ;; ***  genMultiAsm  5619
                      02994 ;; >>> /home/sdcc-builder/build/sdcc-build/orig/sdcc/src/pic14/gen.c:5636:genMultiAsm
                      02995 ;;      1126 rIdx = r0x1048 
0064                  02996 _00125_DS_:
0064   0??? 0???      02997         BANKSEL r0x1015
0066   0D??           02998         RLF     r0x1015,F
                      02999 ;; >>> /home/sdcc-builder/build/sdcc-build/orig/sdcc/src/pic14/gen.c:5750:genGenericShift
0067   3E01           03000         ADDLW   0x01
                      03001 ;; >>> /home/sdcc-builder/build/sdcc-build/orig/sdcc/src/pic14/gen.c:5751:genGenericShift
gpasm-1.5.0 #1285 (Sep 12 2016) obj\Debug\gpi   7-19-2020  03:04:18         PAGE 58


LOC    OBJECT CODE    LINE  SOURCE TEXT
  VALUE

0068   1C03           03002         BTFSS   STATUS,0
                      03003 ;; >>> /home/sdcc-builder/build/sdcc-build/orig/sdcc/src/pic14/gen.c:5752:genGenericShift
                      03004 ;; ***  popGetLabel  key=21, label offset 4
0069   2???           03005         GOTO    _00125_DS_
                      03006 ;; >>> /home/sdcc-builder/build/sdcc-build/orig/sdcc/src/pic14/gen.c:5761:genGenericShift
                      03007 ;; ***  popGetLabel  key=22, label offset 4
006A   2???           03008         GOTO    _00126_DS_
                      03009 ;;; /home/sdcc-builder/build/sdcc-build/orig/sdcc/src/pic14/gen.c:5649:loadSignToC *{*
                      03010 ;; >>> /home/sdcc-builder/build/sdcc-build/orig/sdcc/src/pic14/gen.c:5652:loadSignToC
006B                  03011 _00128_DS_:
006B   1003           03012         BCF     STATUS,0
                      03013 ;; >>> /home/sdcc-builder/build/sdcc-build/orig/sdcc/src/pic14/gen.c:5653:loadSignToC
006C   0??? 0???      03014         BANKSEL r0x1015
006E   1B??           03015         BTFSC   r0x1015,7
                      03016 ;; >>> /home/sdcc-builder/build/sdcc-build/orig/sdcc/src/pic14/gen.c:5654:loadSignToC
006F   1403           03017         BSF     STATUS,0
                      03018 ;;; /home/sdcc-builder/build/sdcc-build/orig/sdcc/src/pic14/gen.c:5618:genMultiAsm *{*
                      03019 ;; ***  genMultiAsm  5619
                      03020 ;; >>> /home/sdcc-builder/build/sdcc-build/orig/sdcc/src/pic14/gen.c:5636:genMultiAsm
                      03021 ;;      1126 rIdx = r0x1048 
0070   0C??           03022         RRF     r0x1015,F
                      03023 ;; >>> /home/sdcc-builder/build/sdcc-build/orig/sdcc/src/pic14/gen.c:5772:genGenericShift
0071   3E01           03024         ADDLW   0x01
                      03025 ;; >>> /home/sdcc-builder/build/sdcc-build/orig/sdcc/src/pic14/gen.c:5773:genGenericShift
0072   1C03           03026         BTFSS   STATUS,0
                      03027 ;; >>> /home/sdcc-builder/build/sdcc-build/orig/sdcc/src/pic14/gen.c:5774:genGenericShift
                      03028 ;; ***  popGetLabel  key=24, label offset 4
0073   2???           03029         GOTO    _00128_DS_
                      03030 ;;; /home/sdcc-builder/build/sdcc-build/orig/sdcc/src/pic14/gen.c:2358:resultRemat *{*
                      03031 ;;; /home/sdcc-builder/build/sdcc-build/orig/sdcc/src/pic14/gen.c:1609:genCpl *{*
                      03032 ;; ***  genCpl  1611
                      03033 ;;      708 register type nRegs=1
                      03034 ;;      708 register type nRegs=1
                      03035 ;; >>> /home/sdcc-builder/build/sdcc-build/orig/sdcc/src/pic14/gen.c:1631:genCpl
                      03036 ;;      1126 rIdx = r0x1048 
0074                  03037 _00126_DS_:
0074   0??? 0???      03038         BANKSEL r0x1015
0076   09??           03039         COMF    r0x1015,W
                      03040 ;; >>> /home/sdcc-builder/build/sdcc-build/orig/sdcc/src/pic14/gen.c:1632:genCpl
                      03041 ;;      1126 rIdx = r0x1045 
0077   00??           03042         MOVWF   r0x1012
                      03043 ;; ***  addSign  1087
                      03044 ;;; /home/sdcc-builder/build/sdcc-build/orig/sdcc/src/pic14/genarith.c:1088:addSign *{*
                      03045 ;;; /home/sdcc-builder/build/sdcc-build/orig/sdcc/src/pic14/gen.c:2358:resultRemat *{*
                      03046 ;;; /home/sdcc-builder/build/sdcc-build/orig/sdcc/src/pic14/gen.c:7386:genCast *{*
                      03047 ;; ***  genCast  7387
                      03048 ;; ***  aopForSym 324
                      03049 ;;      336 sym->rname = _TRISB, size = 1
                      03050 ;;      708 register type nRegs=1
                      03051 ;;      line = 7395 result AOP_REG=r0x1048, size=1, left -=-, size=0, right AOP_DIR=_TRISB, size=1
                      03052 ;; ***  genCast  7537
                      03053 ;; >>> /home/sdcc-builder/build/sdcc-build/orig/sdcc/src/pic14/gen.c:7561:genCast
                      03054 ;;      1027
gpasm-1.5.0 #1285 (Sep 12 2016) obj\Debug\gpi   7-19-2020  03:04:18         PAGE 59


LOC    OBJECT CODE    LINE  SOURCE TEXT
  VALUE

                      03055 ;;      1045  _TRISB   offset=0
0078   0??? 0???      03056         BANKSEL _TRISB
007A   08??           03057         MOVF    _TRISB,W
                      03058 ;; >>> /home/sdcc-builder/build/sdcc-build/orig/sdcc/src/pic14/gen.c:7562:genCast
                      03059 ;;      1126 rIdx = r0x1048 
007B   0??? 0???      03060         BANKSEL r0x1015
007D   00??           03061         MOVWF   r0x1015
007E   05??           03062         ANDWF   r0x1012,F
                      03063 ;;; /home/sdcc-builder/build/sdcc-build/orig/sdcc/src/pic14/gen.c:2358:resultRemat *{*
                      03064 ;;; /home/sdcc-builder/build/sdcc-build/orig/sdcc/src/pic14/gen.c:5667:genGenericShift *{*
                      03065 ;; ***  genGenericShift  5670
                      03066 ;;      708 register type nRegs=1
                      03067 ;;      708 register type nRegs=1
                      03068 ;;      708 register type nRegs=1
                      03069 ;; ***  mov2w  1395  offset=0
                      03070 ;; >>> /home/sdcc-builder/build/sdcc-build/orig/sdcc/src/pic14/gen.c:1400:mov2w
                      03071 ;;      1126 rIdx = r0x1047 
007F   08??           03072         MOVF    r0x1014,W
                      03073 ;; >>> /home/sdcc-builder/build/sdcc-build/orig/sdcc/src/pic14/gen.c:1407:movwf
                      03074 ;;      1126 rIdx = r0x1048 
0080   00??           03075         MOVWF   r0x1015
                      03076 ;; ***  addSign  1087
                      03077 ;;; /home/sdcc-builder/build/sdcc-build/orig/sdcc/src/pic14/genarith.c:1088:addSign *{*
                      03078 ;; ***  mov2w  1395  offset=0
                      03079 ;; >>> /home/sdcc-builder/build/sdcc-build/orig/sdcc/src/pic14/gen.c:1400:mov2w
                      03080 ;;      1126 rIdx = r0x1046 
0081   08??           03081         MOVF    r0x1013,W
                      03082 ;; >>> /home/sdcc-builder/build/sdcc-build/orig/sdcc/src/pic14/gen.c:5741:genGenericShift
0082   3C00           03083         SUBLW   0x00
                      03084 ;; >>> /home/sdcc-builder/build/sdcc-build/orig/sdcc/src/pic14/gen.c:5743:genGenericShift
0083   1903           03085         BTFSC   STATUS,2
                      03086 ;; >>> /home/sdcc-builder/build/sdcc-build/orig/sdcc/src/pic14/gen.c:5744:genGenericShift
                      03087 ;; ***  popGetLabel  key=26, label offset 4
0084   2???           03088         GOTO    _00130_DS_
                      03089 ;;; /home/sdcc-builder/build/sdcc-build/orig/sdcc/src/pic14/gen.c:5618:genMultiAsm *{*
                      03090 ;; ***  genMultiAsm  5619
                      03091 ;; >>> /home/sdcc-builder/build/sdcc-build/orig/sdcc/src/pic14/gen.c:5636:genMultiAsm
                      03092 ;;      1126 rIdx = r0x1048 
0085                  03093 _00129_DS_:
0085   0??? 0???      03094         BANKSEL r0x1015
0087   0D??           03095         RLF     r0x1015,F
                      03096 ;; >>> /home/sdcc-builder/build/sdcc-build/orig/sdcc/src/pic14/gen.c:5750:genGenericShift
0088   3E01           03097         ADDLW   0x01
                      03098 ;; >>> /home/sdcc-builder/build/sdcc-build/orig/sdcc/src/pic14/gen.c:5751:genGenericShift
0089   1C03           03099         BTFSS   STATUS,0
                      03100 ;; >>> /home/sdcc-builder/build/sdcc-build/orig/sdcc/src/pic14/gen.c:5752:genGenericShift
                      03101 ;; ***  popGetLabel  key=25, label offset 4
008A   2???           03102         GOTO    _00129_DS_
                      03103 ;;; /home/sdcc-builder/build/sdcc-build/orig/sdcc/src/pic14/gen.c:2358:resultRemat *{*
                      03104 ;;; /home/sdcc-builder/build/sdcc-build/orig/sdcc/src/pic14/gen.c:7386:genCast *{*
                      03105 ;; ***  genCast  7387
                      03106 ;;      708 register type nRegs=1
                      03107 ;;      708 register type nRegs=1
gpasm-1.5.0 #1285 (Sep 12 2016) obj\Debug\gpi   7-19-2020  03:04:18         PAGE 60


LOC    OBJECT CODE    LINE  SOURCE TEXT
  VALUE

                      03108 ;;      line = 7395 result AOP_REG=r0x1049, size=1, left -=-, size=0, right AOP_REG=r0x1048, size=1
                      03109 ;; ***  genCast  7537
                      03110 ;; >>> /home/sdcc-builder/build/sdcc-build/orig/sdcc/src/pic14/gen.c:7561:genCast
                      03111 ;;      1126 rIdx = r0x1048 
008B                  03112 _00130_DS_:
008B   0??? 0???      03113         BANKSEL r0x1015
008D   08??           03114         MOVF    r0x1015,W
                      03115 ;; >>> /home/sdcc-builder/build/sdcc-build/orig/sdcc/src/pic14/gen.c:7562:genCast
                      03116 ;;      1126 rIdx = r0x1049 
008E   00??           03117         MOVWF   r0x1016
008F   04??           03118         IORWF   r0x1012,W
                      03119 ;; >>> /home/sdcc-builder/build/sdcc-build/orig/sdcc/src/pic14/gen.c:4585:genOr
                      03120 ;;      1027
                      03121 ;;      1045  _TRISB   offset=0
0090   0??? 0???      03122         BANKSEL _TRISB
0092   00??           03123         MOVWF   _TRISB
                      03124 ;;; /home/sdcc-builder/build/sdcc-build/orig/sdcc/src/pic14/gen.c:2358:resultRemat *{*
                      03125 ;;; /home/sdcc-builder/build/sdcc-build/orig/sdcc/src/pic14/gen.c:2820:genGoto *{*
                      03126 ;; >>> /home/sdcc-builder/build/sdcc-build/orig/sdcc/src/pic14/gen.c:2822:genGoto
                      03127 ;; ***  popGetLabel  key=7, label offset 4
                      03128         .line   20; "gpio.c"    break;
0093   2???           03129         GOTO    _00111_DS_
                      03130 ;;; /home/sdcc-builder/build/sdcc-build/orig/sdcc/src/pic14/gen.c:2358:resultRemat *{*
                      03131 ;;; /home/sdcc-builder/build/sdcc-build/orig/sdcc/src/pic14/gen.c:2802:genLabel *{*
                      03132 ;; ***  genLabel  2805
                      03133 ;;; /home/sdcc-builder/build/sdcc-build/orig/sdcc/src/pic14/gen.c:2358:resultRemat *{*
                      03134 ;;; /home/sdcc-builder/build/sdcc-build/orig/sdcc/src/pic14/gen.c:7386:genCast *{*
                      03135 ;; ***  genCast  7387
                      03136 ;;      708 register type nRegs=1
                      03137 ;;      708 register type nRegs=1
                      03138 ;;      line = 7395 result AOP_REG=r0x1045, size=1, left -=-, size=0, right AOP_REG=r0x1046, size=1
                      03139 ;; ***  genCast  7537
                      03140 ;; >>> /home/sdcc-builder/build/sdcc-build/orig/sdcc/src/pic14/gen.c:7561:genCast
                      03141 ;;      1126 rIdx = r0x1046 
                      03142 ;;110   MOVF    r0x1013,W
                      03143 ;; >>> /home/sdcc-builder/build/sdcc-build/orig/sdcc/src/pic14/gen.c:7562:genCast
                      03144 ;;      1126 rIdx = r0x1045 
                      03145 ;;; /home/sdcc-builder/build/sdcc-build/orig/sdcc/src/pic14/gen.c:2358:resultRemat *{*
                      03146 ;;; /home/sdcc-builder/build/sdcc-build/orig/sdcc/src/pic14/gen.c:5667:genGenericShift *{*
                      03147 ;; ***  genGenericShift  5670
                      03148 ;;      708 register type nRegs=1
                      03149 ;;      708 register type nRegs=1
                      03150 ;; ***  mov2w  1395  offset=0
                      03151 ;; >>> /home/sdcc-builder/build/sdcc-build/orig/sdcc/src/pic14/gen.c:1398:mov2w
0094                  03152 _00107_DS_:
                      03153         .line   23; "gpio.c"    SET_REGISTER_PIN(TRISC, pin, direction);
0094   3001           03154         MOVLW   0x01
                      03155 ;; >>> /home/sdcc-builder/build/sdcc-build/orig/sdcc/src/pic14/gen.c:1407:movwf
                      03156 ;;      1126 rIdx = r0x1048 
0095   0??? 0???      03157         BANKSEL r0x1015
0097   00??           03158         MOVWF   r0x1015
                      03159 ;; ***  addSign  1087
                      03160 ;;; /home/sdcc-builder/build/sdcc-build/orig/sdcc/src/pic14/genarith.c:1088:addSign *{*
gpasm-1.5.0 #1285 (Sep 12 2016) obj\Debug\gpi   7-19-2020  03:04:18         PAGE 61


LOC    OBJECT CODE    LINE  SOURCE TEXT
  VALUE

                      03161 ;; ***  mov2w  1395  offset=0
                      03162 ;; >>> /home/sdcc-builder/build/sdcc-build/orig/sdcc/src/pic14/gen.c:1400:mov2w
                      03163 ;;      1126 rIdx = r0x1045 
                      03164 ;;109   MOVF    r0x1012,W
0098   08??           03165         MOVF    r0x1013,W
0099   00??           03166         MOVWF   r0x1012
                      03167 ;; >>> /home/sdcc-builder/build/sdcc-build/orig/sdcc/src/pic14/gen.c:5738:genGenericShift
009A   1B??           03168         BTFSC   r0x1012,7
                      03169 ;; >>> /home/sdcc-builder/build/sdcc-build/orig/sdcc/src/pic14/gen.c:5739:genGenericShift
                      03170 ;; ***  popGetLabel  key=29, label offset 4
009B   2???           03171         GOTO    _00134_DS_
                      03172 ;; >>> /home/sdcc-builder/build/sdcc-build/orig/sdcc/src/pic14/gen.c:5741:genGenericShift
009C   3C00           03173         SUBLW   0x00
                      03174 ;; >>> /home/sdcc-builder/build/sdcc-build/orig/sdcc/src/pic14/gen.c:5743:genGenericShift
009D   1903           03175         BTFSC   STATUS,2
                      03176 ;; >>> /home/sdcc-builder/build/sdcc-build/orig/sdcc/src/pic14/gen.c:5744:genGenericShift
                      03177 ;; ***  popGetLabel  key=28, label offset 4
009E   2???           03178         GOTO    _00132_DS_
                      03179 ;;; /home/sdcc-builder/build/sdcc-build/orig/sdcc/src/pic14/gen.c:5618:genMultiAsm *{*
                      03180 ;; ***  genMultiAsm  5619
                      03181 ;; >>> /home/sdcc-builder/build/sdcc-build/orig/sdcc/src/pic14/gen.c:5636:genMultiAsm
                      03182 ;;      1126 rIdx = r0x1048 
009F                  03183 _00131_DS_:
009F   0??? 0???      03184         BANKSEL r0x1015
00A1   0D??           03185         RLF     r0x1015,F
                      03186 ;; >>> /home/sdcc-builder/build/sdcc-build/orig/sdcc/src/pic14/gen.c:5750:genGenericShift
00A2   3E01           03187         ADDLW   0x01
                      03188 ;; >>> /home/sdcc-builder/build/sdcc-build/orig/sdcc/src/pic14/gen.c:5751:genGenericShift
00A3   1C03           03189         BTFSS   STATUS,0
                      03190 ;; >>> /home/sdcc-builder/build/sdcc-build/orig/sdcc/src/pic14/gen.c:5752:genGenericShift
                      03191 ;; ***  popGetLabel  key=27, label offset 4
00A4   2???           03192         GOTO    _00131_DS_
                      03193 ;; >>> /home/sdcc-builder/build/sdcc-build/orig/sdcc/src/pic14/gen.c:5761:genGenericShift
                      03194 ;; ***  popGetLabel  key=28, label offset 4
00A5   2???           03195         GOTO    _00132_DS_
                      03196 ;;; /home/sdcc-builder/build/sdcc-build/orig/sdcc/src/pic14/gen.c:5649:loadSignToC *{*
                      03197 ;; >>> /home/sdcc-builder/build/sdcc-build/orig/sdcc/src/pic14/gen.c:5652:loadSignToC
00A6                  03198 _00134_DS_:
00A6   1003           03199         BCF     STATUS,0
                      03200 ;; >>> /home/sdcc-builder/build/sdcc-build/orig/sdcc/src/pic14/gen.c:5653:loadSignToC
00A7   0??? 0???      03201         BANKSEL r0x1015
00A9   1B??           03202         BTFSC   r0x1015,7
                      03203 ;; >>> /home/sdcc-builder/build/sdcc-build/orig/sdcc/src/pic14/gen.c:5654:loadSignToC
00AA   1403           03204         BSF     STATUS,0
                      03205 ;;; /home/sdcc-builder/build/sdcc-build/orig/sdcc/src/pic14/gen.c:5618:genMultiAsm *{*
                      03206 ;; ***  genMultiAsm  5619
                      03207 ;; >>> /home/sdcc-builder/build/sdcc-build/orig/sdcc/src/pic14/gen.c:5636:genMultiAsm
                      03208 ;;      1126 rIdx = r0x1048 
00AB   0C??           03209         RRF     r0x1015,F
                      03210 ;; >>> /home/sdcc-builder/build/sdcc-build/orig/sdcc/src/pic14/gen.c:5772:genGenericShift
00AC   3E01           03211         ADDLW   0x01
                      03212 ;; >>> /home/sdcc-builder/build/sdcc-build/orig/sdcc/src/pic14/gen.c:5773:genGenericShift
00AD   1C03           03213         BTFSS   STATUS,0
gpasm-1.5.0 #1285 (Sep 12 2016) obj\Debug\gpi   7-19-2020  03:04:18         PAGE 62


LOC    OBJECT CODE    LINE  SOURCE TEXT
  VALUE

                      03214 ;; >>> /home/sdcc-builder/build/sdcc-build/orig/sdcc/src/pic14/gen.c:5774:genGenericShift
                      03215 ;; ***  popGetLabel  key=30, label offset 4
00AE   2???           03216         GOTO    _00134_DS_
                      03217 ;;; /home/sdcc-builder/build/sdcc-build/orig/sdcc/src/pic14/gen.c:2358:resultRemat *{*
                      03218 ;;; /home/sdcc-builder/build/sdcc-build/orig/sdcc/src/pic14/gen.c:1609:genCpl *{*
                      03219 ;; ***  genCpl  1611
                      03220 ;;      708 register type nRegs=1
                      03221 ;;      708 register type nRegs=1
                      03222 ;; >>> /home/sdcc-builder/build/sdcc-build/orig/sdcc/src/pic14/gen.c:1631:genCpl
                      03223 ;;      1126 rIdx = r0x1048 
00AF                  03224 _00132_DS_:
00AF   0??? 0???      03225         BANKSEL r0x1015
00B1   09??           03226         COMF    r0x1015,W
                      03227 ;; >>> /home/sdcc-builder/build/sdcc-build/orig/sdcc/src/pic14/gen.c:1632:genCpl
                      03228 ;;      1126 rIdx = r0x1045 
00B2   00??           03229         MOVWF   r0x1012
                      03230 ;; ***  addSign  1087
                      03231 ;;; /home/sdcc-builder/build/sdcc-build/orig/sdcc/src/pic14/genarith.c:1088:addSign *{*
                      03232 ;;; /home/sdcc-builder/build/sdcc-build/orig/sdcc/src/pic14/gen.c:2358:resultRemat *{*
                      03233 ;;; /home/sdcc-builder/build/sdcc-build/orig/sdcc/src/pic14/gen.c:7386:genCast *{*
                      03234 ;; ***  genCast  7387
                      03235 ;; ***  aopForSym 324
                      03236 ;;      336 sym->rname = _TRISC, size = 1
                      03237 ;;      708 register type nRegs=1
                      03238 ;;      line = 7395 result AOP_REG=r0x1048, size=1, left -=-, size=0, right AOP_DIR=_TRISC, size=1
                      03239 ;; ***  genCast  7537
                      03240 ;; >>> /home/sdcc-builder/build/sdcc-build/orig/sdcc/src/pic14/gen.c:7561:genCast
                      03241 ;;      1027
                      03242 ;;      1045  _TRISC   offset=0
00B3   0??? 0???      03243         BANKSEL _TRISC
00B5   08??           03244         MOVF    _TRISC,W
                      03245 ;; >>> /home/sdcc-builder/build/sdcc-build/orig/sdcc/src/pic14/gen.c:7562:genCast
                      03246 ;;      1126 rIdx = r0x1048 
00B6   0??? 0???      03247         BANKSEL r0x1015
00B8   00??           03248         MOVWF   r0x1015
00B9   05??           03249         ANDWF   r0x1012,F
                      03250 ;;; /home/sdcc-builder/build/sdcc-build/orig/sdcc/src/pic14/gen.c:2358:resultRemat *{*
                      03251 ;;; /home/sdcc-builder/build/sdcc-build/orig/sdcc/src/pic14/gen.c:5667:genGenericShift *{*
                      03252 ;; ***  genGenericShift  5670
                      03253 ;;      708 register type nRegs=1
                      03254 ;;      708 register type nRegs=1
                      03255 ;;      708 register type nRegs=1
                      03256 ;; ***  mov2w  1395  offset=0
                      03257 ;; >>> /home/sdcc-builder/build/sdcc-build/orig/sdcc/src/pic14/gen.c:1400:mov2w
                      03258 ;;      1126 rIdx = r0x1047 
00BA   08??           03259         MOVF    r0x1014,W
                      03260 ;; >>> /home/sdcc-builder/build/sdcc-build/orig/sdcc/src/pic14/gen.c:1407:movwf
                      03261 ;;      1126 rIdx = r0x1048 
00BB   00??           03262         MOVWF   r0x1015
                      03263 ;; ***  addSign  1087
                      03264 ;;; /home/sdcc-builder/build/sdcc-build/orig/sdcc/src/pic14/genarith.c:1088:addSign *{*
                      03265 ;; ***  mov2w  1395  offset=0
                      03266 ;; >>> /home/sdcc-builder/build/sdcc-build/orig/sdcc/src/pic14/gen.c:1400:mov2w
gpasm-1.5.0 #1285 (Sep 12 2016) obj\Debug\gpi   7-19-2020  03:04:18         PAGE 63


LOC    OBJECT CODE    LINE  SOURCE TEXT
  VALUE

                      03267 ;;      1126 rIdx = r0x1046 
00BC   08??           03268         MOVF    r0x1013,W
                      03269 ;; >>> /home/sdcc-builder/build/sdcc-build/orig/sdcc/src/pic14/gen.c:5741:genGenericShift
00BD   3C00           03270         SUBLW   0x00
                      03271 ;; >>> /home/sdcc-builder/build/sdcc-build/orig/sdcc/src/pic14/gen.c:5743:genGenericShift
00BE   1903           03272         BTFSC   STATUS,2
                      03273 ;; >>> /home/sdcc-builder/build/sdcc-build/orig/sdcc/src/pic14/gen.c:5744:genGenericShift
                      03274 ;; ***  popGetLabel  key=32, label offset 4
00BF   2???           03275         GOTO    _00136_DS_
                      03276 ;;; /home/sdcc-builder/build/sdcc-build/orig/sdcc/src/pic14/gen.c:5618:genMultiAsm *{*
                      03277 ;; ***  genMultiAsm  5619
                      03278 ;; >>> /home/sdcc-builder/build/sdcc-build/orig/sdcc/src/pic14/gen.c:5636:genMultiAsm
                      03279 ;;      1126 rIdx = r0x1048 
00C0                  03280 _00135_DS_:
00C0   0??? 0???      03281         BANKSEL r0x1015
00C2   0D??           03282         RLF     r0x1015,F
                      03283 ;; >>> /home/sdcc-builder/build/sdcc-build/orig/sdcc/src/pic14/gen.c:5750:genGenericShift
00C3   3E01           03284         ADDLW   0x01
                      03285 ;; >>> /home/sdcc-builder/build/sdcc-build/orig/sdcc/src/pic14/gen.c:5751:genGenericShift
00C4   1C03           03286         BTFSS   STATUS,0
                      03287 ;; >>> /home/sdcc-builder/build/sdcc-build/orig/sdcc/src/pic14/gen.c:5752:genGenericShift
                      03288 ;; ***  popGetLabel  key=31, label offset 4
00C5   2???           03289         GOTO    _00135_DS_
                      03290 ;;; /home/sdcc-builder/build/sdcc-build/orig/sdcc/src/pic14/gen.c:2358:resultRemat *{*
                      03291 ;;; /home/sdcc-builder/build/sdcc-build/orig/sdcc/src/pic14/gen.c:7386:genCast *{*
                      03292 ;; ***  genCast  7387
                      03293 ;;      708 register type nRegs=1
                      03294 ;;      708 register type nRegs=1
                      03295 ;;      line = 7395 result AOP_REG=r0x1049, size=1, left -=-, size=0, right AOP_REG=r0x1048, size=1
                      03296 ;; ***  genCast  7537
                      03297 ;; >>> /home/sdcc-builder/build/sdcc-build/orig/sdcc/src/pic14/gen.c:7561:genCast
                      03298 ;;      1126 rIdx = r0x1048 
00C6                  03299 _00136_DS_:
00C6   0??? 0???      03300         BANKSEL r0x1015
00C8   08??           03301         MOVF    r0x1015,W
                      03302 ;; >>> /home/sdcc-builder/build/sdcc-build/orig/sdcc/src/pic14/gen.c:7562:genCast
                      03303 ;;      1126 rIdx = r0x1049 
00C9   00??           03304         MOVWF   r0x1016
00CA   04??           03305         IORWF   r0x1012,W
                      03306 ;; >>> /home/sdcc-builder/build/sdcc-build/orig/sdcc/src/pic14/gen.c:4585:genOr
                      03307 ;;      1027
                      03308 ;;      1045  _TRISC   offset=0
00CB   0??? 0???      03309         BANKSEL _TRISC
00CD   00??           03310         MOVWF   _TRISC
                      03311 ;;; /home/sdcc-builder/build/sdcc-build/orig/sdcc/src/pic14/gen.c:2358:resultRemat *{*
                      03312 ;;; /home/sdcc-builder/build/sdcc-build/orig/sdcc/src/pic14/gen.c:2820:genGoto *{*
                      03313 ;; >>> /home/sdcc-builder/build/sdcc-build/orig/sdcc/src/pic14/gen.c:2822:genGoto
                      03314 ;; ***  popGetLabel  key=7, label offset 4
                      03315         .line   24; "gpio.c"    break;
00CE   2???           03316         GOTO    _00111_DS_
                      03317 ;;; /home/sdcc-builder/build/sdcc-build/orig/sdcc/src/pic14/gen.c:2358:resultRemat *{*
                      03318 ;;; /home/sdcc-builder/build/sdcc-build/orig/sdcc/src/pic14/gen.c:2802:genLabel *{*
                      03319 ;; ***  genLabel  2805
gpasm-1.5.0 #1285 (Sep 12 2016) obj\Debug\gpi   7-19-2020  03:04:18         PAGE 64


LOC    OBJECT CODE    LINE  SOURCE TEXT
  VALUE

                      03320 ;;; /home/sdcc-builder/build/sdcc-build/orig/sdcc/src/pic14/gen.c:2358:resultRemat *{*
                      03321 ;;; /home/sdcc-builder/build/sdcc-build/orig/sdcc/src/pic14/gen.c:7386:genCast *{*
                      03322 ;; ***  genCast  7387
                      03323 ;;      708 register type nRegs=1
                      03324 ;;      708 register type nRegs=1
                      03325 ;;      line = 7395 result AOP_REG=r0x1045, size=1, left -=-, size=0, right AOP_REG=r0x1046, size=1
                      03326 ;; ***  genCast  7537
                      03327 ;; >>> /home/sdcc-builder/build/sdcc-build/orig/sdcc/src/pic14/gen.c:7561:genCast
                      03328 ;;      1126 rIdx = r0x1046 
                      03329 ;;106   MOVF    r0x1013,W
                      03330 ;; >>> /home/sdcc-builder/build/sdcc-build/orig/sdcc/src/pic14/gen.c:7562:genCast
                      03331 ;;      1126 rIdx = r0x1045 
                      03332 ;;; /home/sdcc-builder/build/sdcc-build/orig/sdcc/src/pic14/gen.c:2358:resultRemat *{*
                      03333 ;;; /home/sdcc-builder/build/sdcc-build/orig/sdcc/src/pic14/gen.c:5667:genGenericShift *{*
                      03334 ;; ***  genGenericShift  5670
                      03335 ;;      708 register type nRegs=1
                      03336 ;;      708 register type nRegs=1
                      03337 ;; ***  mov2w  1395  offset=0
                      03338 ;; >>> /home/sdcc-builder/build/sdcc-build/orig/sdcc/src/pic14/gen.c:1398:mov2w
00CF                  03339 _00108_DS_:
                      03340         .line   27; "gpio.c"    SET_REGISTER_PIN(TRISD, pin, direction);
00CF   3001           03341         MOVLW   0x01
                      03342 ;; >>> /home/sdcc-builder/build/sdcc-build/orig/sdcc/src/pic14/gen.c:1407:movwf
                      03343 ;;      1126 rIdx = r0x1048 
00D0   0??? 0???      03344         BANKSEL r0x1015
00D2   00??           03345         MOVWF   r0x1015
                      03346 ;; ***  addSign  1087
                      03347 ;;; /home/sdcc-builder/build/sdcc-build/orig/sdcc/src/pic14/genarith.c:1088:addSign *{*
                      03348 ;; ***  mov2w  1395  offset=0
                      03349 ;; >>> /home/sdcc-builder/build/sdcc-build/orig/sdcc/src/pic14/gen.c:1400:mov2w
                      03350 ;;      1126 rIdx = r0x1045 
                      03351 ;;105   MOVF    r0x1012,W
00D3   08??           03352         MOVF    r0x1013,W
00D4   00??           03353         MOVWF   r0x1012
                      03354 ;; >>> /home/sdcc-builder/build/sdcc-build/orig/sdcc/src/pic14/gen.c:5738:genGenericShift
00D5   1B??           03355         BTFSC   r0x1012,7
                      03356 ;; >>> /home/sdcc-builder/build/sdcc-build/orig/sdcc/src/pic14/gen.c:5739:genGenericShift
                      03357 ;; ***  popGetLabel  key=35, label offset 4
00D6   2???           03358         GOTO    _00140_DS_
                      03359 ;; >>> /home/sdcc-builder/build/sdcc-build/orig/sdcc/src/pic14/gen.c:5741:genGenericShift
00D7   3C00           03360         SUBLW   0x00
                      03361 ;; >>> /home/sdcc-builder/build/sdcc-build/orig/sdcc/src/pic14/gen.c:5743:genGenericShift
00D8   1903           03362         BTFSC   STATUS,2
                      03363 ;; >>> /home/sdcc-builder/build/sdcc-build/orig/sdcc/src/pic14/gen.c:5744:genGenericShift
                      03364 ;; ***  popGetLabel  key=34, label offset 4
00D9   2???           03365         GOTO    _00138_DS_
                      03366 ;;; /home/sdcc-builder/build/sdcc-build/orig/sdcc/src/pic14/gen.c:5618:genMultiAsm *{*
                      03367 ;; ***  genMultiAsm  5619
                      03368 ;; >>> /home/sdcc-builder/build/sdcc-build/orig/sdcc/src/pic14/gen.c:5636:genMultiAsm
                      03369 ;;      1126 rIdx = r0x1048 
00DA                  03370 _00137_DS_:
00DA   0??? 0???      03371         BANKSEL r0x1015
00DC   0D??           03372         RLF     r0x1015,F
gpasm-1.5.0 #1285 (Sep 12 2016) obj\Debug\gpi   7-19-2020  03:04:18         PAGE 65


LOC    OBJECT CODE    LINE  SOURCE TEXT
  VALUE

                      03373 ;; >>> /home/sdcc-builder/build/sdcc-build/orig/sdcc/src/pic14/gen.c:5750:genGenericShift
00DD   3E01           03374         ADDLW   0x01
                      03375 ;; >>> /home/sdcc-builder/build/sdcc-build/orig/sdcc/src/pic14/gen.c:5751:genGenericShift
00DE   1C03           03376         BTFSS   STATUS,0
                      03377 ;; >>> /home/sdcc-builder/build/sdcc-build/orig/sdcc/src/pic14/gen.c:5752:genGenericShift
                      03378 ;; ***  popGetLabel  key=33, label offset 4
00DF   2???           03379         GOTO    _00137_DS_
                      03380 ;; >>> /home/sdcc-builder/build/sdcc-build/orig/sdcc/src/pic14/gen.c:5761:genGenericShift
                      03381 ;; ***  popGetLabel  key=34, label offset 4
00E0   2???           03382         GOTO    _00138_DS_
                      03383 ;;; /home/sdcc-builder/build/sdcc-build/orig/sdcc/src/pic14/gen.c:5649:loadSignToC *{*
                      03384 ;; >>> /home/sdcc-builder/build/sdcc-build/orig/sdcc/src/pic14/gen.c:5652:loadSignToC
00E1                  03385 _00140_DS_:
00E1   1003           03386         BCF     STATUS,0
                      03387 ;; >>> /home/sdcc-builder/build/sdcc-build/orig/sdcc/src/pic14/gen.c:5653:loadSignToC
00E2   0??? 0???      03388         BANKSEL r0x1015
00E4   1B??           03389         BTFSC   r0x1015,7
                      03390 ;; >>> /home/sdcc-builder/build/sdcc-build/orig/sdcc/src/pic14/gen.c:5654:loadSignToC
00E5   1403           03391         BSF     STATUS,0
                      03392 ;;; /home/sdcc-builder/build/sdcc-build/orig/sdcc/src/pic14/gen.c:5618:genMultiAsm *{*
                      03393 ;; ***  genMultiAsm  5619
                      03394 ;; >>> /home/sdcc-builder/build/sdcc-build/orig/sdcc/src/pic14/gen.c:5636:genMultiAsm
                      03395 ;;      1126 rIdx = r0x1048 
00E6   0C??           03396         RRF     r0x1015,F
                      03397 ;; >>> /home/sdcc-builder/build/sdcc-build/orig/sdcc/src/pic14/gen.c:5772:genGenericShift
00E7   3E01           03398         ADDLW   0x01
                      03399 ;; >>> /home/sdcc-builder/build/sdcc-build/orig/sdcc/src/pic14/gen.c:5773:genGenericShift
00E8   1C03           03400         BTFSS   STATUS,0
                      03401 ;; >>> /home/sdcc-builder/build/sdcc-build/orig/sdcc/src/pic14/gen.c:5774:genGenericShift
                      03402 ;; ***  popGetLabel  key=36, label offset 4
00E9   2???           03403         GOTO    _00140_DS_
                      03404 ;;; /home/sdcc-builder/build/sdcc-build/orig/sdcc/src/pic14/gen.c:2358:resultRemat *{*
                      03405 ;;; /home/sdcc-builder/build/sdcc-build/orig/sdcc/src/pic14/gen.c:1609:genCpl *{*
                      03406 ;; ***  genCpl  1611
                      03407 ;;      708 register type nRegs=1
                      03408 ;;      708 register type nRegs=1
                      03409 ;; >>> /home/sdcc-builder/build/sdcc-build/orig/sdcc/src/pic14/gen.c:1631:genCpl
                      03410 ;;      1126 rIdx = r0x1048 
00EA                  03411 _00138_DS_:
00EA   0??? 0???      03412         BANKSEL r0x1015
00EC   09??           03413         COMF    r0x1015,W
                      03414 ;; >>> /home/sdcc-builder/build/sdcc-build/orig/sdcc/src/pic14/gen.c:1632:genCpl
                      03415 ;;      1126 rIdx = r0x1045 
00ED   00??           03416         MOVWF   r0x1012
                      03417 ;; ***  addSign  1087
                      03418 ;;; /home/sdcc-builder/build/sdcc-build/orig/sdcc/src/pic14/genarith.c:1088:addSign *{*
                      03419 ;;; /home/sdcc-builder/build/sdcc-build/orig/sdcc/src/pic14/gen.c:2358:resultRemat *{*
                      03420 ;;; /home/sdcc-builder/build/sdcc-build/orig/sdcc/src/pic14/gen.c:7386:genCast *{*
                      03421 ;; ***  genCast  7387
                      03422 ;; ***  aopForSym 324
                      03423 ;;      336 sym->rname = _TRISD, size = 1
                      03424 ;;      708 register type nRegs=1
                      03425 ;;      line = 7395 result AOP_REG=r0x1048, size=1, left -=-, size=0, right AOP_DIR=_TRISD, size=1
gpasm-1.5.0 #1285 (Sep 12 2016) obj\Debug\gpi   7-19-2020  03:04:18         PAGE 66


LOC    OBJECT CODE    LINE  SOURCE TEXT
  VALUE

                      03426 ;; ***  genCast  7537
                      03427 ;; >>> /home/sdcc-builder/build/sdcc-build/orig/sdcc/src/pic14/gen.c:7561:genCast
                      03428 ;;      1027
                      03429 ;;      1045  _TRISD   offset=0
00EE   0??? 0???      03430         BANKSEL _TRISD
00F0   08??           03431         MOVF    _TRISD,W
                      03432 ;; >>> /home/sdcc-builder/build/sdcc-build/orig/sdcc/src/pic14/gen.c:7562:genCast
                      03433 ;;      1126 rIdx = r0x1048 
00F1   0??? 0???      03434         BANKSEL r0x1015
00F3   00??           03435         MOVWF   r0x1015
00F4   05??           03436         ANDWF   r0x1012,F
                      03437 ;;; /home/sdcc-builder/build/sdcc-build/orig/sdcc/src/pic14/gen.c:2358:resultRemat *{*
                      03438 ;;; /home/sdcc-builder/build/sdcc-build/orig/sdcc/src/pic14/gen.c:5667:genGenericShift *{*
                      03439 ;; ***  genGenericShift  5670
                      03440 ;;      708 register type nRegs=1
                      03441 ;;      708 register type nRegs=1
                      03442 ;;      708 register type nRegs=1
                      03443 ;; ***  mov2w  1395  offset=0
                      03444 ;; >>> /home/sdcc-builder/build/sdcc-build/orig/sdcc/src/pic14/gen.c:1400:mov2w
                      03445 ;;      1126 rIdx = r0x1047 
00F5   08??           03446         MOVF    r0x1014,W
                      03447 ;; >>> /home/sdcc-builder/build/sdcc-build/orig/sdcc/src/pic14/gen.c:1407:movwf
                      03448 ;;      1126 rIdx = r0x1048 
00F6   00??           03449         MOVWF   r0x1015
                      03450 ;; ***  addSign  1087
                      03451 ;;; /home/sdcc-builder/build/sdcc-build/orig/sdcc/src/pic14/genarith.c:1088:addSign *{*
                      03452 ;; ***  mov2w  1395  offset=0
                      03453 ;; >>> /home/sdcc-builder/build/sdcc-build/orig/sdcc/src/pic14/gen.c:1400:mov2w
                      03454 ;;      1126 rIdx = r0x1046 
00F7   08??           03455         MOVF    r0x1013,W
                      03456 ;; >>> /home/sdcc-builder/build/sdcc-build/orig/sdcc/src/pic14/gen.c:5741:genGenericShift
00F8   3C00           03457         SUBLW   0x00
                      03458 ;; >>> /home/sdcc-builder/build/sdcc-build/orig/sdcc/src/pic14/gen.c:5743:genGenericShift
00F9   1903           03459         BTFSC   STATUS,2
                      03460 ;; >>> /home/sdcc-builder/build/sdcc-build/orig/sdcc/src/pic14/gen.c:5744:genGenericShift
                      03461 ;; ***  popGetLabel  key=38, label offset 4
00FA   2???           03462         GOTO    _00142_DS_
                      03463 ;;; /home/sdcc-builder/build/sdcc-build/orig/sdcc/src/pic14/gen.c:5618:genMultiAsm *{*
                      03464 ;; ***  genMultiAsm  5619
                      03465 ;; >>> /home/sdcc-builder/build/sdcc-build/orig/sdcc/src/pic14/gen.c:5636:genMultiAsm
                      03466 ;;      1126 rIdx = r0x1048 
00FB                  03467 _00141_DS_:
00FB   0??? 0???      03468         BANKSEL r0x1015
00FD   0D??           03469         RLF     r0x1015,F
                      03470 ;; >>> /home/sdcc-builder/build/sdcc-build/orig/sdcc/src/pic14/gen.c:5750:genGenericShift
00FE   3E01           03471         ADDLW   0x01
                      03472 ;; >>> /home/sdcc-builder/build/sdcc-build/orig/sdcc/src/pic14/gen.c:5751:genGenericShift
00FF   1C03           03473         BTFSS   STATUS,0
                      03474 ;; >>> /home/sdcc-builder/build/sdcc-build/orig/sdcc/src/pic14/gen.c:5752:genGenericShift
                      03475 ;; ***  popGetLabel  key=37, label offset 4
0100   2???           03476         GOTO    _00141_DS_
                      03477 ;;; /home/sdcc-builder/build/sdcc-build/orig/sdcc/src/pic14/gen.c:2358:resultRemat *{*
                      03478 ;;; /home/sdcc-builder/build/sdcc-build/orig/sdcc/src/pic14/gen.c:7386:genCast *{*
gpasm-1.5.0 #1285 (Sep 12 2016) obj\Debug\gpi   7-19-2020  03:04:18         PAGE 67


LOC    OBJECT CODE    LINE  SOURCE TEXT
  VALUE

                      03479 ;; ***  genCast  7387
                      03480 ;;      708 register type nRegs=1
                      03481 ;;      708 register type nRegs=1
                      03482 ;;      line = 7395 result AOP_REG=r0x1049, size=1, left -=-, size=0, right AOP_REG=r0x1048, size=1
                      03483 ;; ***  genCast  7537
                      03484 ;; >>> /home/sdcc-builder/build/sdcc-build/orig/sdcc/src/pic14/gen.c:7561:genCast
                      03485 ;;      1126 rIdx = r0x1048 
0101                  03486 _00142_DS_:
0101   0??? 0???      03487         BANKSEL r0x1015
0103   08??           03488         MOVF    r0x1015,W
                      03489 ;; >>> /home/sdcc-builder/build/sdcc-build/orig/sdcc/src/pic14/gen.c:7562:genCast
                      03490 ;;      1126 rIdx = r0x1049 
0104   00??           03491         MOVWF   r0x1016
0105   04??           03492         IORWF   r0x1012,W
                      03493 ;; >>> /home/sdcc-builder/build/sdcc-build/orig/sdcc/src/pic14/gen.c:4585:genOr
                      03494 ;;      1027
                      03495 ;;      1045  _TRISD   offset=0
0106   0??? 0???      03496         BANKSEL _TRISD
0108   00??           03497         MOVWF   _TRISD
                      03498 ;;; /home/sdcc-builder/build/sdcc-build/orig/sdcc/src/pic14/gen.c:2358:resultRemat *{*
                      03499 ;;; /home/sdcc-builder/build/sdcc-build/orig/sdcc/src/pic14/gen.c:2820:genGoto *{*
                      03500 ;; >>> /home/sdcc-builder/build/sdcc-build/orig/sdcc/src/pic14/gen.c:2822:genGoto
                      03501 ;; ***  popGetLabel  key=7, label offset 4
                      03502         .line   28; "gpio.c"    break;
0109   2???           03503         GOTO    _00111_DS_
                      03504 ;;; /home/sdcc-builder/build/sdcc-build/orig/sdcc/src/pic14/gen.c:2358:resultRemat *{*
                      03505 ;;; /home/sdcc-builder/build/sdcc-build/orig/sdcc/src/pic14/gen.c:2802:genLabel *{*
                      03506 ;; ***  genLabel  2805
                      03507 ;;; /home/sdcc-builder/build/sdcc-build/orig/sdcc/src/pic14/gen.c:2358:resultRemat *{*
                      03508 ;;; /home/sdcc-builder/build/sdcc-build/orig/sdcc/src/pic14/gen.c:7386:genCast *{*
                      03509 ;; ***  genCast  7387
                      03510 ;;      708 register type nRegs=1
                      03511 ;;      708 register type nRegs=1
                      03512 ;;      line = 7395 result AOP_REG=r0x1045, size=1, left -=-, size=0, right AOP_REG=r0x1046, size=1
                      03513 ;; ***  genCast  7537
                      03514 ;; >>> /home/sdcc-builder/build/sdcc-build/orig/sdcc/src/pic14/gen.c:7561:genCast
                      03515 ;;      1126 rIdx = r0x1046 
                      03516 ;;100   MOVF    r0x1013,W
                      03517 ;; >>> /home/sdcc-builder/build/sdcc-build/orig/sdcc/src/pic14/gen.c:7562:genCast
                      03518 ;;      1126 rIdx = r0x1045 
                      03519 ;;; /home/sdcc-builder/build/sdcc-build/orig/sdcc/src/pic14/gen.c:2358:resultRemat *{*
                      03520 ;;; /home/sdcc-builder/build/sdcc-build/orig/sdcc/src/pic14/gen.c:5667:genGenericShift *{*
                      03521 ;; ***  genGenericShift  5670
                      03522 ;;      708 register type nRegs=1
                      03523 ;;      708 register type nRegs=1
                      03524 ;; ***  mov2w  1395  offset=0
                      03525 ;; >>> /home/sdcc-builder/build/sdcc-build/orig/sdcc/src/pic14/gen.c:1398:mov2w
010A                  03526 _00109_DS_:
                      03527         .line   31; "gpio.c"    SET_REGISTER_PIN(TRISE, pin, direction);
010A   3001           03528         MOVLW   0x01
                      03529 ;; >>> /home/sdcc-builder/build/sdcc-build/orig/sdcc/src/pic14/gen.c:1407:movwf
                      03530 ;;      1126 rIdx = r0x1048 
010B   0??? 0???      03531         BANKSEL r0x1015
gpasm-1.5.0 #1285 (Sep 12 2016) obj\Debug\gpi   7-19-2020  03:04:18         PAGE 68


LOC    OBJECT CODE    LINE  SOURCE TEXT
  VALUE

010D   00??           03532         MOVWF   r0x1015
                      03533 ;; ***  addSign  1087
                      03534 ;;; /home/sdcc-builder/build/sdcc-build/orig/sdcc/src/pic14/genarith.c:1088:addSign *{*
                      03535 ;; ***  mov2w  1395  offset=0
                      03536 ;; >>> /home/sdcc-builder/build/sdcc-build/orig/sdcc/src/pic14/gen.c:1400:mov2w
                      03537 ;;      1126 rIdx = r0x1045 
                      03538 ;;99    MOVF    r0x1012,W
010E   08??           03539         MOVF    r0x1013,W
010F   00??           03540         MOVWF   r0x1012
                      03541 ;; >>> /home/sdcc-builder/build/sdcc-build/orig/sdcc/src/pic14/gen.c:5738:genGenericShift
0110   1B??           03542         BTFSC   r0x1012,7
                      03543 ;; >>> /home/sdcc-builder/build/sdcc-build/orig/sdcc/src/pic14/gen.c:5739:genGenericShift
                      03544 ;; ***  popGetLabel  key=41, label offset 4
0111   2???           03545         GOTO    _00146_DS_
                      03546 ;; >>> /home/sdcc-builder/build/sdcc-build/orig/sdcc/src/pic14/gen.c:5741:genGenericShift
0112   3C00           03547         SUBLW   0x00
                      03548 ;; >>> /home/sdcc-builder/build/sdcc-build/orig/sdcc/src/pic14/gen.c:5743:genGenericShift
0113   1903           03549         BTFSC   STATUS,2
                      03550 ;; >>> /home/sdcc-builder/build/sdcc-build/orig/sdcc/src/pic14/gen.c:5744:genGenericShift
                      03551 ;; ***  popGetLabel  key=40, label offset 4
0114   2???           03552         GOTO    _00144_DS_
                      03553 ;;; /home/sdcc-builder/build/sdcc-build/orig/sdcc/src/pic14/gen.c:5618:genMultiAsm *{*
                      03554 ;; ***  genMultiAsm  5619
                      03555 ;; >>> /home/sdcc-builder/build/sdcc-build/orig/sdcc/src/pic14/gen.c:5636:genMultiAsm
                      03556 ;;      1126 rIdx = r0x1048 
0115                  03557 _00143_DS_:
0115   0??? 0???      03558         BANKSEL r0x1015
0117   0D??           03559         RLF     r0x1015,F
                      03560 ;; >>> /home/sdcc-builder/build/sdcc-build/orig/sdcc/src/pic14/gen.c:5750:genGenericShift
0118   3E01           03561         ADDLW   0x01
                      03562 ;; >>> /home/sdcc-builder/build/sdcc-build/orig/sdcc/src/pic14/gen.c:5751:genGenericShift
0119   1C03           03563         BTFSS   STATUS,0
                      03564 ;; >>> /home/sdcc-builder/build/sdcc-build/orig/sdcc/src/pic14/gen.c:5752:genGenericShift
                      03565 ;; ***  popGetLabel  key=39, label offset 4
011A   2???           03566         GOTO    _00143_DS_
                      03567 ;; >>> /home/sdcc-builder/build/sdcc-build/orig/sdcc/src/pic14/gen.c:5761:genGenericShift
                      03568 ;; ***  popGetLabel  key=40, label offset 4
011B   2???           03569         GOTO    _00144_DS_
                      03570 ;;; /home/sdcc-builder/build/sdcc-build/orig/sdcc/src/pic14/gen.c:5649:loadSignToC *{*
                      03571 ;; >>> /home/sdcc-builder/build/sdcc-build/orig/sdcc/src/pic14/gen.c:5652:loadSignToC
011C                  03572 _00146_DS_:
011C   1003           03573         BCF     STATUS,0
                      03574 ;; >>> /home/sdcc-builder/build/sdcc-build/orig/sdcc/src/pic14/gen.c:5653:loadSignToC
011D   0??? 0???      03575         BANKSEL r0x1015
011F   1B??           03576         BTFSC   r0x1015,7
                      03577 ;; >>> /home/sdcc-builder/build/sdcc-build/orig/sdcc/src/pic14/gen.c:5654:loadSignToC
0120   1403           03578         BSF     STATUS,0
                      03579 ;;; /home/sdcc-builder/build/sdcc-build/orig/sdcc/src/pic14/gen.c:5618:genMultiAsm *{*
                      03580 ;; ***  genMultiAsm  5619
                      03581 ;; >>> /home/sdcc-builder/build/sdcc-build/orig/sdcc/src/pic14/gen.c:5636:genMultiAsm
                      03582 ;;      1126 rIdx = r0x1048 
0121   0C??           03583         RRF     r0x1015,F
                      03584 ;; >>> /home/sdcc-builder/build/sdcc-build/orig/sdcc/src/pic14/gen.c:5772:genGenericShift
gpasm-1.5.0 #1285 (Sep 12 2016) obj\Debug\gpi   7-19-2020  03:04:18         PAGE 69


LOC    OBJECT CODE    LINE  SOURCE TEXT
  VALUE

0122   3E01           03585         ADDLW   0x01
                      03586 ;; >>> /home/sdcc-builder/build/sdcc-build/orig/sdcc/src/pic14/gen.c:5773:genGenericShift
0123   1C03           03587         BTFSS   STATUS,0
                      03588 ;; >>> /home/sdcc-builder/build/sdcc-build/orig/sdcc/src/pic14/gen.c:5774:genGenericShift
                      03589 ;; ***  popGetLabel  key=42, label offset 4
0124   2???           03590         GOTO    _00146_DS_
                      03591 ;;; /home/sdcc-builder/build/sdcc-build/orig/sdcc/src/pic14/gen.c:2358:resultRemat *{*
                      03592 ;;; /home/sdcc-builder/build/sdcc-build/orig/sdcc/src/pic14/gen.c:1609:genCpl *{*
                      03593 ;; ***  genCpl  1611
                      03594 ;;      708 register type nRegs=1
                      03595 ;;      708 register type nRegs=1
                      03596 ;; >>> /home/sdcc-builder/build/sdcc-build/orig/sdcc/src/pic14/gen.c:1631:genCpl
                      03597 ;;      1126 rIdx = r0x1048 
0125                  03598 _00144_DS_:
0125   0??? 0???      03599         BANKSEL r0x1015
0127   09??           03600         COMF    r0x1015,W
                      03601 ;; >>> /home/sdcc-builder/build/sdcc-build/orig/sdcc/src/pic14/gen.c:1632:genCpl
                      03602 ;;      1126 rIdx = r0x1045 
0128   00??           03603         MOVWF   r0x1012
                      03604 ;; ***  addSign  1087
                      03605 ;;; /home/sdcc-builder/build/sdcc-build/orig/sdcc/src/pic14/genarith.c:1088:addSign *{*
                      03606 ;;; /home/sdcc-builder/build/sdcc-build/orig/sdcc/src/pic14/gen.c:2358:resultRemat *{*
                      03607 ;;; /home/sdcc-builder/build/sdcc-build/orig/sdcc/src/pic14/gen.c:7386:genCast *{*
                      03608 ;; ***  genCast  7387
                      03609 ;; ***  aopForSym 324
                      03610 ;;      336 sym->rname = _TRISE, size = 1
                      03611 ;;      708 register type nRegs=1
                      03612 ;;      line = 7395 result AOP_REG=r0x1048, size=1, left -=-, size=0, right AOP_DIR=_TRISE, size=1
                      03613 ;; ***  genCast  7537
                      03614 ;; >>> /home/sdcc-builder/build/sdcc-build/orig/sdcc/src/pic14/gen.c:7561:genCast
                      03615 ;;      1027
                      03616 ;;      1045  _TRISE   offset=0
0129   0??? 0???      03617         BANKSEL _TRISE
012B   08??           03618         MOVF    _TRISE,W
                      03619 ;; >>> /home/sdcc-builder/build/sdcc-build/orig/sdcc/src/pic14/gen.c:7562:genCast
                      03620 ;;      1126 rIdx = r0x1048 
012C   0??? 0???      03621         BANKSEL r0x1015
012E   00??           03622         MOVWF   r0x1015
012F   05??           03623         ANDWF   r0x1012,F
                      03624 ;;; /home/sdcc-builder/build/sdcc-build/orig/sdcc/src/pic14/gen.c:2358:resultRemat *{*
                      03625 ;;; /home/sdcc-builder/build/sdcc-build/orig/sdcc/src/pic14/gen.c:5667:genGenericShift *{*
                      03626 ;; ***  genGenericShift  5670
                      03627 ;;      708 register type nRegs=1
                      03628 ;;      708 register type nRegs=1
                      03629 ;;      708 register type nRegs=1
                      03630 ;; ***  mov2w  1395  offset=0
                      03631 ;; >>> /home/sdcc-builder/build/sdcc-build/orig/sdcc/src/pic14/gen.c:1400:mov2w
                      03632 ;;      1126 rIdx = r0x1047 
0130   08??           03633         MOVF    r0x1014,W
                      03634 ;; >>> /home/sdcc-builder/build/sdcc-build/orig/sdcc/src/pic14/gen.c:1407:movwf
                      03635 ;;      1126 rIdx = r0x1048 
0131   00??           03636         MOVWF   r0x1015
                      03637 ;; ***  addSign  1087
gpasm-1.5.0 #1285 (Sep 12 2016) obj\Debug\gpi   7-19-2020  03:04:18         PAGE 70


LOC    OBJECT CODE    LINE  SOURCE TEXT
  VALUE

                      03638 ;;; /home/sdcc-builder/build/sdcc-build/orig/sdcc/src/pic14/genarith.c:1088:addSign *{*
                      03639 ;; ***  mov2w  1395  offset=0
                      03640 ;; >>> /home/sdcc-builder/build/sdcc-build/orig/sdcc/src/pic14/gen.c:1400:mov2w
                      03641 ;;      1126 rIdx = r0x1046 
0132   08??           03642         MOVF    r0x1013,W
                      03643 ;; >>> /home/sdcc-builder/build/sdcc-build/orig/sdcc/src/pic14/gen.c:5741:genGenericShift
0133   3C00           03644         SUBLW   0x00
                      03645 ;; >>> /home/sdcc-builder/build/sdcc-build/orig/sdcc/src/pic14/gen.c:5743:genGenericShift
0134   1903           03646         BTFSC   STATUS,2
                      03647 ;; >>> /home/sdcc-builder/build/sdcc-build/orig/sdcc/src/pic14/gen.c:5744:genGenericShift
                      03648 ;; ***  popGetLabel  key=44, label offset 4
0135   2???           03649         GOTO    _00148_DS_
                      03650 ;;; /home/sdcc-builder/build/sdcc-build/orig/sdcc/src/pic14/gen.c:5618:genMultiAsm *{*
                      03651 ;; ***  genMultiAsm  5619
                      03652 ;; >>> /home/sdcc-builder/build/sdcc-build/orig/sdcc/src/pic14/gen.c:5636:genMultiAsm
                      03653 ;;      1126 rIdx = r0x1048 
0136                  03654 _00147_DS_:
0136   0??? 0???      03655         BANKSEL r0x1015
0138   0D??           03656         RLF     r0x1015,F
                      03657 ;; >>> /home/sdcc-builder/build/sdcc-build/orig/sdcc/src/pic14/gen.c:5750:genGenericShift
0139   3E01           03658         ADDLW   0x01
                      03659 ;; >>> /home/sdcc-builder/build/sdcc-build/orig/sdcc/src/pic14/gen.c:5751:genGenericShift
013A   1C03           03660         BTFSS   STATUS,0
                      03661 ;; >>> /home/sdcc-builder/build/sdcc-build/orig/sdcc/src/pic14/gen.c:5752:genGenericShift
                      03662 ;; ***  popGetLabel  key=43, label offset 4
013B   2???           03663         GOTO    _00147_DS_
                      03664 ;;; /home/sdcc-builder/build/sdcc-build/orig/sdcc/src/pic14/gen.c:2358:resultRemat *{*
                      03665 ;;; /home/sdcc-builder/build/sdcc-build/orig/sdcc/src/pic14/gen.c:7386:genCast *{*
                      03666 ;; ***  genCast  7387
                      03667 ;;      708 register type nRegs=1
                      03668 ;;      708 register type nRegs=1
                      03669 ;;      line = 7395 result AOP_REG=r0x1046, size=1, left -=-, size=0, right AOP_REG=r0x1048, size=1
                      03670 ;; ***  genCast  7537
                      03671 ;; >>> /home/sdcc-builder/build/sdcc-build/orig/sdcc/src/pic14/gen.c:7561:genCast
                      03672 ;;      1126 rIdx = r0x1048 
013C                  03673 _00148_DS_:
013C   0??? 0???      03674         BANKSEL r0x1015
013E   08??           03675         MOVF    r0x1015,W
                      03676 ;; >>> /home/sdcc-builder/build/sdcc-build/orig/sdcc/src/pic14/gen.c:7562:genCast
                      03677 ;;      1126 rIdx = r0x1046 
013F   00??           03678         MOVWF   r0x1013
0140   04??           03679         IORWF   r0x1012,W
                      03680 ;; >>> /home/sdcc-builder/build/sdcc-build/orig/sdcc/src/pic14/gen.c:4585:genOr
                      03681 ;;      1027
                      03682 ;;      1045  _TRISE   offset=0
0141   0??? 0???      03683         BANKSEL _TRISE
0143   00??           03684         MOVWF   _TRISE
                      03685 ;;; /home/sdcc-builder/build/sdcc-build/orig/sdcc/src/pic14/gen.c:2358:resultRemat *{*
                      03686 ;;; /home/sdcc-builder/build/sdcc-build/orig/sdcc/src/pic14/gen.c:2802:genLabel *{*
                      03687 ;; ***  genLabel  2805
                      03688 ;;; /home/sdcc-builder/build/sdcc-build/orig/sdcc/src/pic14/gen.c:2358:resultRemat *{*
                      03689 ;;; /home/sdcc-builder/build/sdcc-build/orig/sdcc/src/pic14/gen.c:2570:genEndFunction *{*
                      03690 ;; ***  genEndFunction  2572
gpasm-1.5.0 #1285 (Sep 12 2016) obj\Debug\gpi   7-19-2020  03:04:18         PAGE 71


LOC    OBJECT CODE    LINE  SOURCE TEXT
  VALUE

0144                  03691 _00111_DS_:
                      03692         .line   36; "gpio.c"    }
0144   0008           03693         RETURN  
                      03694 ; exit point of _GPIO_InitPortPin
                      03695 ;;; /home/sdcc-builder/build/sdcc-build/orig/sdcc/src/pic14/gen.c:7710:genpic14Code *{*
                      03696 
                      03697 
                      03698 ;       code size estimation:
                      03699 ;         740+  147 =   887 instructions ( 2068 byte)
                      03700 
                      03701         end
gpasm-1.5.0 #1285 (Sep 12 2016) obj\Debug\gpi   7-19-2020  03:04:18         PAGE 72


SYMBOL TABLE
  LABEL                              TYPE        VALUE         VALUE          VALUE
                                                 (hex)         (dec)          (text)

ACKDT                             CONSTANT      00000005              5
ACKEN                             CONSTANT      00000004              4
ACKSTAT                           CONSTANT      00000006              6
ADCON0                            CONSTANT      0000001F             31
ADCON1                            CONSTANT      0000009F            159
ADCS0                             CONSTANT      00000006              6
ADCS1                             CONSTANT      00000007              7
ADCS2                             CONSTANT      00000006              6
ADDEN                             CONSTANT      00000003              3
ADFM                              CONSTANT      00000007              7
ADIE                              CONSTANT      00000006              6
ADIF                              CONSTANT      00000006              6
ADON                              CONSTANT      00000000              0
ADRESH                            CONSTANT      0000001E             30
ADRESL                            CONSTANT      0000009E            158
BCLIE                             CONSTANT      00000003              3
BCLIF                             CONSTANT      00000003              3
BF                                CONSTANT      00000000              0
BRGH                              CONSTANT      00000002              2
C                                 CONSTANT      00000000              0
C1INV                             CONSTANT      00000004              4
C1OUT                             CONSTANT      00000006              6
C2INV                             CONSTANT      00000005              5
C2OUT                             CONSTANT      00000007              7
CCP1CON                           CONSTANT      00000017             23
CCP1IE                            CONSTANT      00000002              2
CCP1IF                            CONSTANT      00000002              2
CCP1M0                            CONSTANT      00000000              0
CCP1M1                            CONSTANT      00000001              1
CCP1M2                            CONSTANT      00000002              2
CCP1M3                            CONSTANT      00000003              3
CCP1X                             CONSTANT      00000005              5
CCP1Y                             CONSTANT      00000004              4
CCP2CON                           CONSTANT      0000001D             29
CCP2IE                            CONSTANT      00000000              0
CCP2IF                            CONSTANT      00000000              0
CCP2M0                            CONSTANT      00000000              0
CCP2M1                            CONSTANT      00000001              1
CCP2M2                            CONSTANT      00000002              2
CCP2M3                            CONSTANT      00000003              3
CCP2X                             CONSTANT      00000005              5
CCP2Y                             CONSTANT      00000004              4
CCPR1                             CONSTANT      00000015             21
CCPR1H                            CONSTANT      00000016             22
CCPR1L                            CONSTANT      00000015             21
CCPR2                             CONSTANT      0000001B             27
CCPR2H                            CONSTANT      0000001C             28
CCPR2L                            CONSTANT      0000001B             27
CHS0                              CONSTANT      00000003              3
CHS1                              CONSTANT      00000004              4
CHS2                              CONSTANT      00000005              5
CIS                               CONSTANT      00000003              3
gpasm-1.5.0 #1285 (Sep 12 2016) obj\Debug\gpi   7-19-2020  03:04:18         PAGE 73


SYMBOL TABLE
  LABEL                              TYPE        VALUE         VALUE          VALUE
                                                 (hex)         (dec)          (text)

CKE                               CONSTANT      00000006              6
CKP                               CONSTANT      00000004              4
CM0                               CONSTANT      00000000              0
CM1                               CONSTANT      00000001              1
CM2                               CONSTANT      00000002              2
CMCON                             CONSTANT      0000009C            156
CMIE                              CONSTANT      00000006              6
CMIF                              CONSTANT      00000006              6
CREN                              CONSTANT      00000004              4
CSRC                              CONSTANT      00000007              7
CVR0                              CONSTANT      00000000              0
CVR1                              CONSTANT      00000001              1
CVR2                              CONSTANT      00000002              2
CVR3                              CONSTANT      00000003              3
CVRCON                            CONSTANT      0000009D            157
CVREN                             CONSTANT      00000007              7
CVROE                             CONSTANT      00000006              6
CVRR                              CONSTANT      00000005              5
D                                 CONSTANT      00000005              5
DATA_ADDRESS                      CONSTANT      00000005              5
DC                                CONSTANT      00000001              1
D_A                               CONSTANT      00000005              5
D_NOT_A                           CONSTANT      00000005              5
EEADR                             CONSTANT      0000010D            269
EEADRH                            CONSTANT      0000010F            271
EECON1                            CONSTANT      0000018C            396
EECON2                            CONSTANT      0000018D            397
EEDATA                            CONSTANT      0000010C            268
EEDATH                            CONSTANT      0000010E            270
EEIE                              CONSTANT      00000004              4
EEIF                              CONSTANT      00000004              4
EEPGD                             CONSTANT      00000007              7
F                                 CONSTANT      00000001              1
FERR                              CONSTANT      00000002              2
FSR                               CONSTANT      00000004              4
GCEN                              CONSTANT      00000007              7
GIE                               CONSTANT      00000007              7
GO                                CONSTANT      00000002              2
GO_DONE                           CONSTANT      00000002              2
GO_NOT_DONE                       CONSTANT      00000002              2
I2C_DATA                          CONSTANT      00000005              5
I2C_READ                          CONSTANT      00000002              2
I2C_START                         CONSTANT      00000003              3
I2C_STOP                          CONSTANT      00000004              4
IBF                               CONSTANT      00000007              7
IBOV                              CONSTANT      00000005              5
INDF                              CONSTANT      00000000              0
INTCON                            CONSTANT      0000000B             11
INTE                              CONSTANT      00000004              4
INTEDG                            CONSTANT      00000006              6
INTF                              CONSTANT      00000001              1
IRP                               CONSTANT      00000007              7
gpasm-1.5.0 #1285 (Sep 12 2016) obj\Debug\gpi   7-19-2020  03:04:18         PAGE 74


SYMBOL TABLE
  LABEL                              TYPE        VALUE         VALUE          VALUE
                                                 (hex)         (dec)          (text)

NOT_A                             CONSTANT      00000005              5
NOT_ADDRESS                       CONSTANT      00000005              5
NOT_BO                            CONSTANT      00000000              0
NOT_BOR                           CONSTANT      00000000              0
NOT_DONE                          CONSTANT      00000002              2
NOT_PD                            CONSTANT      00000003              3
NOT_POR                           CONSTANT      00000001              1
NOT_RBPU                          CONSTANT      00000007              7
NOT_RC8                           CONSTANT      00000006              6
NOT_T1SYNC                        CONSTANT      00000002              2
NOT_TO                            CONSTANT      00000004              4
NOT_TX8                           CONSTANT      00000006              6
NOT_W                             CONSTANT      00000002              2
NOT_WRITE                         CONSTANT      00000002              2
OBF                               CONSTANT      00000006              6
OERR                              CONSTANT      00000001              1
OPTION_REG                        CONSTANT      00000081            129
P                                 CONSTANT      00000004              4
PCFG0                             CONSTANT      00000000              0
PCFG1                             CONSTANT      00000001              1
PCFG2                             CONSTANT      00000002              2
PCFG3                             CONSTANT      00000003              3
PCL                               CONSTANT      00000002              2
PCLATH                            CONSTANT      0000000A             10
PCON                              CONSTANT      0000008E            142
PEIE                              CONSTANT      00000006              6
PEN                               CONSTANT      00000002              2
PIE1                              CONSTANT      0000008C            140
PIE2                              CONSTANT      0000008D            141
PIR1                              CONSTANT      0000000C             12
PIR2                              CONSTANT      0000000D             13
PORTA                             CONSTANT      00000005              5
PORTB                             CONSTANT      00000006              6
PORTC                             CONSTANT      00000007              7
PORTD                             CONSTANT      00000008              8
PORTE                             CONSTANT      00000009              9
PR2                               CONSTANT      00000092            146
PS0                               CONSTANT      00000000              0
PS1                               CONSTANT      00000001              1
PS2                               CONSTANT      00000002              2
PSA                               CONSTANT      00000003              3
PSAVE                             EXTERNAL      00000000              0
PSPIE                             CONSTANT      00000007              7
PSPIF                             CONSTANT      00000007              7
PSPMODE                           CONSTANT      00000004              4
R                                 CONSTANT      00000002              2
RA0                               CONSTANT      00000000              0
RA1                               CONSTANT      00000001              1
RA2                               CONSTANT      00000002              2
RA3                               CONSTANT      00000003              3
RA4                               CONSTANT      00000004              4
RA5                               CONSTANT      00000005              5
gpasm-1.5.0 #1285 (Sep 12 2016) obj\Debug\gpi   7-19-2020  03:04:18         PAGE 75


SYMBOL TABLE
  LABEL                              TYPE        VALUE         VALUE          VALUE
                                                 (hex)         (dec)          (text)

RB0                               CONSTANT      00000000              0
RB1                               CONSTANT      00000001              1
RB2                               CONSTANT      00000002              2
RB3                               CONSTANT      00000003              3
RB4                               CONSTANT      00000004              4
RB5                               CONSTANT      00000005              5
RB6                               CONSTANT      00000006              6
RB7                               CONSTANT      00000007              7
RBIE                              CONSTANT      00000003              3
RBIF                              CONSTANT      00000000              0
RC0                               CONSTANT      00000000              0
RC1                               CONSTANT      00000001              1
RC2                               CONSTANT      00000002              2
RC3                               CONSTANT      00000003              3
RC4                               CONSTANT      00000004              4
RC5                               CONSTANT      00000005              5
RC6                               CONSTANT      00000006              6
RC7                               CONSTANT      00000007              7
RC8_9                             CONSTANT      00000006              6
RC9                               CONSTANT      00000006              6
RCD8                              CONSTANT      00000000              0
RCEN                              CONSTANT      00000003              3
RCIE                              CONSTANT      00000005              5
RCIF                              CONSTANT      00000005              5
RCREG                             CONSTANT      0000001A             26
RCSTA                             CONSTANT      00000018             24
RD                                CONSTANT      00000000              0
RD0                               CONSTANT      00000000              0
RD1                               CONSTANT      00000001              1
RD2                               CONSTANT      00000002              2
RD3                               CONSTANT      00000003              3
RD4                               CONSTANT      00000004              4
RD5                               CONSTANT      00000005              5
RD6                               CONSTANT      00000006              6
RD7                               CONSTANT      00000007              7
RE0                               CONSTANT      00000000              0
RE1                               CONSTANT      00000001              1
RE2                               CONSTANT      00000002              2
READ_WRITE                        CONSTANT      00000002              2
RP0                               CONSTANT      00000005              5
RP1                               CONSTANT      00000006              6
RSEN                              CONSTANT      00000001              1
RX9                               CONSTANT      00000006              6
RX9D                              CONSTANT      00000000              0
R_NOT_W                           CONSTANT      00000002              2
R_W                               CONSTANT      00000002              2
S                                 CONSTANT      00000003              3
SEN                               CONSTANT      00000000              0
SMP                               CONSTANT      00000007              7
SPBRG                             CONSTANT      00000099            153
SPEN                              CONSTANT      00000007              7
SREN                              CONSTANT      00000005              5
gpasm-1.5.0 #1285 (Sep 12 2016) obj\Debug\gpi   7-19-2020  03:04:18         PAGE 76


SYMBOL TABLE
  LABEL                              TYPE        VALUE         VALUE          VALUE
                                                 (hex)         (dec)          (text)

SSAVE                             EXTERNAL      00000000              0
SSPADD                            CONSTANT      00000093            147
SSPBUF                            CONSTANT      00000013             19
SSPCON                            CONSTANT      00000014             20
SSPCON2                           CONSTANT      00000091            145
SSPEN                             CONSTANT      00000005              5
SSPIE                             CONSTANT      00000003              3
SSPIF                             CONSTANT      00000003              3
SSPM0                             CONSTANT      00000000              0
SSPM1                             CONSTANT      00000001              1
SSPM2                             CONSTANT      00000002              2
SSPM3                             CONSTANT      00000003              3
SSPOV                             CONSTANT      00000006              6
SSPSTAT                           CONSTANT      00000094            148
STATUS                            CONSTANT      00000003              3
STK00                             EXTERNAL      00000000              0
STK01                             EXTERNAL      00000000              0
STK02                             EXTERNAL      00000000              0
STK03                             EXTERNAL      00000000              0
STK04                             EXTERNAL      00000000              0
STK05                             EXTERNAL      00000000              0
STK06                             EXTERNAL      00000000              0
STK07                             EXTERNAL      00000000              0
STK08                             EXTERNAL      00000000              0
STK09                             EXTERNAL      00000000              0
STK10                             EXTERNAL      00000000              0
STK11                             EXTERNAL      00000000              0
STK12                             EXTERNAL      00000000              0
SYNC                              CONSTANT      00000004              4
T0CS                              CONSTANT      00000005              5
T0IE                              CONSTANT      00000005              5
T0IF                              CONSTANT      00000002              2
T0SE                              CONSTANT      00000004              4
T1CKPS0                           CONSTANT      00000004              4
T1CKPS1                           CONSTANT      00000005              5
T1CON                             CONSTANT      00000010             16
T1INSYNC                          CONSTANT      00000002              2
T1OSCEN                           CONSTANT      00000003              3
T1SYNC                            CONSTANT      00000002              2
T2CKPS0                           CONSTANT      00000000              0
T2CKPS1                           CONSTANT      00000001              1
T2CON                             CONSTANT      00000012             18
TMR0                              CONSTANT      00000001              1
TMR0IE                            CONSTANT      00000005              5
TMR0IF                            CONSTANT      00000002              2
TMR1                              CONSTANT      0000000E             14
TMR1CS                            CONSTANT      00000001              1
TMR1H                             CONSTANT      0000000F             15
TMR1IE                            CONSTANT      00000000              0
TMR1IF                            CONSTANT      00000000              0
TMR1L                             CONSTANT      0000000E             14
TMR1ON                            CONSTANT      00000000              0
gpasm-1.5.0 #1285 (Sep 12 2016) obj\Debug\gpi   7-19-2020  03:04:18         PAGE 77


SYMBOL TABLE
  LABEL                              TYPE        VALUE         VALUE          VALUE
                                                 (hex)         (dec)          (text)

TMR2                              CONSTANT      00000011             17
TMR2IE                            CONSTANT      00000001              1
TMR2IF                            CONSTANT      00000001              1
TMR2ON                            CONSTANT      00000002              2
TOUTPS0                           CONSTANT      00000003              3
TOUTPS1                           CONSTANT      00000004              4
TOUTPS2                           CONSTANT      00000005              5
TOUTPS3                           CONSTANT      00000006              6
TRISA                             CONSTANT      00000085            133
TRISA0                            CONSTANT      00000000              0
TRISA1                            CONSTANT      00000001              1
TRISA2                            CONSTANT      00000002              2
TRISA3                            CONSTANT      00000003              3
TRISA4                            CONSTANT      00000004              4
TRISA5                            CONSTANT      00000005              5
TRISB                             CONSTANT      00000086            134
TRISB0                            CONSTANT      00000000              0
TRISB1                            CONSTANT      00000001              1
TRISB2                            CONSTANT      00000002              2
TRISB3                            CONSTANT      00000003              3
TRISB4                            CONSTANT      00000004              4
TRISB5                            CONSTANT      00000005              5
TRISB6                            CONSTANT      00000006              6
TRISB7                            CONSTANT      00000007              7
TRISC                             CONSTANT      00000087            135
TRISC0                            CONSTANT      00000000              0
TRISC1                            CONSTANT      00000001              1
TRISC2                            CONSTANT      00000002              2
TRISC3                            CONSTANT      00000003              3
TRISC4                            CONSTANT      00000004              4
TRISC5                            CONSTANT      00000005              5
TRISC6                            CONSTANT      00000006              6
TRISC7                            CONSTANT      00000007              7
TRISD                             CONSTANT      00000088            136
TRISD0                            CONSTANT      00000000              0
TRISD1                            CONSTANT      00000001              1
TRISD2                            CONSTANT      00000002              2
TRISD3                            CONSTANT      00000003              3
TRISD4                            CONSTANT      00000004              4
TRISD5                            CONSTANT      00000005              5
TRISD6                            CONSTANT      00000006              6
TRISD7                            CONSTANT      00000007              7
TRISE                             CONSTANT      00000089            137
TRISE0                            CONSTANT      00000000              0
TRISE1                            CONSTANT      00000001              1
TRISE2                            CONSTANT      00000002              2
TRMT                              CONSTANT      00000001              1
TX8_9                             CONSTANT      00000006              6
TX9                               CONSTANT      00000006              6
TX9D                              CONSTANT      00000000              0
TXD8                              CONSTANT      00000000              0
TXEN                              CONSTANT      00000005              5
gpasm-1.5.0 #1285 (Sep 12 2016) obj\Debug\gpi   7-19-2020  03:04:18         PAGE 78


SYMBOL TABLE
  LABEL                              TYPE        VALUE         VALUE          VALUE
                                                 (hex)         (dec)          (text)

TXIE                              CONSTANT      00000004              4
TXIF                              CONSTANT      00000004              4
TXREG                             CONSTANT      00000019             25
TXSTA                             CONSTANT      00000098            152
UA                                CONSTANT      00000001              1
W                                 CONSTANT      00000000              0
WCOL                              CONSTANT      00000007              7
WR                                CONSTANT      00000001              1
WREN                              CONSTANT      00000002              2
WRERR                             CONSTANT      00000003              3
WSAVE                             EXTERNAL      00000000              0
Z                                 CONSTANT      00000002              2
_00001_DS_                        ADDRESS       00000017             23
_00002_DS_                        ADDRESS       00000018             24
_00003_DS_                        ADDRESS       00000018             24
_00105_DS_                        ADDRESS       0000001E             30
_00106_DS_                        ADDRESS       00000059             89
_00107_DS_                        ADDRESS       00000094            148
_00108_DS_                        ADDRESS       000000CF            207
_00109_DS_                        ADDRESS       0000010A            266
_00111_DS_                        ADDRESS       00000144            324
_00118_DS_                        ADDRESS       00000019             25
_00119_DS_                        ADDRESS       00000029             41
_00120_DS_                        ADDRESS       00000039             57
_00122_DS_                        ADDRESS       00000030             48
_00123_DS_                        ADDRESS       0000004A             74
_00124_DS_                        ADDRESS       00000050             80
_00125_DS_                        ADDRESS       00000064            100
_00126_DS_                        ADDRESS       00000074            116
_00128_DS_                        ADDRESS       0000006B            107
_00129_DS_                        ADDRESS       00000085            133
_00130_DS_                        ADDRESS       0000008B            139
_00131_DS_                        ADDRESS       0000009F            159
_00132_DS_                        ADDRESS       000000AF            175
_00134_DS_                        ADDRESS       000000A6            166
_00135_DS_                        ADDRESS       000000C0            192
_00136_DS_                        ADDRESS       000000C6            198
_00137_DS_                        ADDRESS       000000DA            218
_00138_DS_                        ADDRESS       000000EA            234
_00140_DS_                        ADDRESS       000000E1            225
_00141_DS_                        ADDRESS       000000FB            251
_00142_DS_                        ADDRESS       00000101            257
_00143_DS_                        ADDRESS       00000115            277
_00144_DS_                        ADDRESS       00000125            293
_00146_DS_                        ADDRESS       0000011C            284
_00147_DS_                        ADDRESS       00000136            310
_00148_DS_                        ADDRESS       0000013C            316
_00154_DS_                        ADDRESS       00000006              6
_00163_DS_                        ADDRESS       0000001E             30
_00164_DS_                        ADDRESS       00000059             89
_00165_DS_                        ADDRESS       00000094            148
_00166_DS_                        ADDRESS       000000CF            207
gpasm-1.5.0 #1285 (Sep 12 2016) obj\Debug\gpi   7-19-2020  03:04:18         PAGE 79


SYMBOL TABLE
  LABEL                              TYPE        VALUE         VALUE          VALUE
                                                 (hex)         (dec)          (text)

_00167_DS_                        ADDRESS       0000010A            266
_00169_DS_                        ADDRESS       00000144            324
_00176_DS_                        ADDRESS       00000019             25
_00177_DS_                        ADDRESS       00000029             41
_00178_DS_                        ADDRESS       00000039             57
_00180_DS_                        ADDRESS       00000030             48
_00181_DS_                        ADDRESS       0000004A             74
_00182_DS_                        ADDRESS       00000050             80
_00183_DS_                        ADDRESS       00000064            100
_00184_DS_                        ADDRESS       00000074            116
_00186_DS_                        ADDRESS       0000006B            107
_00187_DS_                        ADDRESS       00000085            133
_00188_DS_                        ADDRESS       0000008B            139
_00189_DS_                        ADDRESS       0000009F            159
_00190_DS_                        ADDRESS       000000AF            175
_00192_DS_                        ADDRESS       000000A6            166
_00193_DS_                        ADDRESS       000000C0            192
_00194_DS_                        ADDRESS       000000C6            198
_00195_DS_                        ADDRESS       000000DA            218
_00196_DS_                        ADDRESS       000000EA            234
_00198_DS_                        ADDRESS       000000E1            225
_00199_DS_                        ADDRESS       000000FB            251
_00200_DS_                        ADDRESS       00000101            257
_00201_DS_                        ADDRESS       00000115            277
_00202_DS_                        ADDRESS       00000125            293
_00204_DS_                        ADDRESS       0000011C            284
_00205_DS_                        ADDRESS       00000136            310
_00206_DS_                        ADDRESS       0000013C            316
_00212_DS_                        ADDRESS       00000006              6
_00221_DS_                        ADDRESS       00000010             16
_00222_DS_                        ADDRESS       00000017             23
_00223_DS_                        ADDRESS       00000027             39
_00224_DS_                        ADDRESS       00000031             49
_00229_DS_                        ADDRESS       0000001D             29
_00230_DS_                        ADDRESS       00000050             80
_00231_DS_                        ADDRESS       00000083            131
_00232_DS_                        ADDRESS       000000B6            182
_00233_DS_                        ADDRESS       000000E9            233
_00234_DS_                        ADDRESS       0000011B            283
_00242_DS_                        ADDRESS       00000018             24
_00243_DS_                        ADDRESS       00000027             39
_00244_DS_                        ADDRESS       0000002E             46
_00245_DS_                        ADDRESS       00000041             65
_00246_DS_                        ADDRESS       0000004B             75
_00247_DS_                        ADDRESS       0000005A             90
_00248_DS_                        ADDRESS       00000061             97
_00249_DS_                        ADDRESS       00000074            116
_00250_DS_                        ADDRESS       0000007E            126
_00251_DS_                        ADDRESS       0000008D            141
_00252_DS_                        ADDRESS       00000094            148
_00253_DS_                        ADDRESS       000000A7            167
_00254_DS_                        ADDRESS       000000B1            177
gpasm-1.5.0 #1285 (Sep 12 2016) obj\Debug\gpi   7-19-2020  03:04:18         PAGE 80


SYMBOL TABLE
  LABEL                              TYPE        VALUE         VALUE          VALUE
                                                 (hex)         (dec)          (text)

_00255_DS_                        ADDRESS       000000C0            192
_00256_DS_                        ADDRESS       000000C7            199
_00257_DS_                        ADDRESS       000000DA            218
_00258_DS_                        ADDRESS       000000E4            228
_00259_DS_                        ADDRESS       000000F3            243
_00260_DS_                        ADDRESS       000000FA            250
_00261_DS_                        ADDRESS       0000010D            269
_00262_DS_                        ADDRESS       00000117            279
_BODEN_OFF                        CONSTANT      00003FBF          16319
_BODEN_ON                         CONSTANT      00003FFF          16383
_BOREN_OFF                        CONSTANT      00003FBF          16319
_BOREN_ON                         CONSTANT      00003FFF          16383
_CONFIG                           CONSTANT      00002007           8199
_CPD_OFF                          CONSTANT      00003FFF          16383
_CPD_ON                           CONSTANT      00003EFF          16127
_CP_ALL                           CONSTANT      00001FFF           8191
_CP_OFF                           CONSTANT      00003FFF          16383
_CP_ON                            CONSTANT      00001FFF           8191
_DEBUG_OFF                        CONSTANT      00003FFF          16383
_DEBUG_ON                         CONSTANT      000037FF          14335
_DEVID1                           CONSTANT      00002006           8198
_FOSC_EXTRC                       CONSTANT      00003FFF          16383
_FOSC_HS                          CONSTANT      00003FFE          16382
_FOSC_LP                          CONSTANT      00003FFC          16380
_FOSC_XT                          CONSTANT      00003FFD          16381
_GPIO_GetPortPinState             GLOBAL        00000000              0
_GPIO_InitPort                    GLOBAL        00000000              0
_GPIO_InitPortPin                 GLOBAL        00000000              0
_GPIO_SetPortPinState             GLOBAL        00000000              0
_GPIO_SetPortState                GLOBAL        00000000              0
_GPIO_Update                      GLOBAL        00000000              0
_HS_OSC                           CONSTANT      00003FFE          16382
_IDLOC0                           CONSTANT      00002000           8192
_IDLOC1                           CONSTANT      00002001           8193
_IDLOC2                           CONSTANT      00002002           8194
_IDLOC3                           CONSTANT      00002003           8195
_LP_OSC                           CONSTANT      00003FFC          16380
_LVP_OFF                          CONSTANT      00003F7F          16255
_LVP_ON                           CONSTANT      00003FFF          16383
_PORTA                            EXTERNAL      00000000              0
_PORTB                            EXTERNAL      00000000              0
_PORTC                            EXTERNAL      00000000              0
_PORTD                            EXTERNAL      00000000              0
_PORTE                            EXTERNAL      00000000              0
_PWRTE_OFF                        CONSTANT      00003FFF          16383
_PWRTE_ON                         CONSTANT      00003FF7          16375
_RC_OSC                           CONSTANT      00003FFF          16383
_S_gpio__GPIO_InitPort_0010       ADDRESS       00000010             16
_S_gpio__GPIO_SetPortState_003C   ADDRESS       0000003C             60
_TRISA                            EXTERNAL      00000000              0
_TRISB                            EXTERNAL      00000000              0
_TRISC                            EXTERNAL      00000000              0
gpasm-1.5.0 #1285 (Sep 12 2016) obj\Debug\gpi   7-19-2020  03:04:18         PAGE 81


SYMBOL TABLE
  LABEL                              TYPE        VALUE         VALUE          VALUE
                                                 (hex)         (dec)          (text)

_TRISD                            EXTERNAL      00000000              0
_TRISE                            EXTERNAL      00000000              0
_WDTE_OFF                         CONSTANT      00003FFB          16379
_WDTE_ON                          CONSTANT      00003FFF          16383
_WDT_OFF                          CONSTANT      00003FFB          16379
_WDT_ON                           CONSTANT      00003FFF          16383
_WRT_1FOURTH                      CONSTANT      00003BFF          15359
_WRT_256                          CONSTANT      00003DFF          15871
_WRT_HALF                         CONSTANT      000039FF          14847
_WRT_OFF                          CONSTANT      00003FFF          16383
_XT_OSC                           CONSTANT      00003FFD          16381
__14_BIT                          CONSTANT      00000001              1
__16F877A                         CONSTANT      00000001              1
__ACTIVE_BANK_ADDR                VARIABLE      FFFFFFFF             -1
__ACTIVE_PAGE_ADDR                VARIABLE      FFFFFFFF             -1
__ASSUMED_BANK_ADDR               VARIABLE      FFFFFFFF             -1
__BANK_0                          CONSTANT      00000000              0
__BANK_1                          CONSTANT      00000080            128
__BANK_2                          CONSTANT      00000100            256
__BANK_3                          CONSTANT      00000180            384
__BANK_BITS                       CONSTANT      00000180            384
__BANK_FIRST                      CONSTANT      00000000              0
__BANK_INV                        CONSTANT      FFFFFFFF             -1
__BANK_LAST                       CONSTANT      00000180            384
__BANK_MASK                       CONSTANT      0000007F            127
__BANK_SHIFT                      CONSTANT      00000007              7
__BANK_SIZE                       CONSTANT      00000080            128
__CODE_END                        CONSTANT      00001FFF           8191
__CODE_START                      CONSTANT      00000000              0
__COMMON_RAM_END                  CONSTANT      0000007F            127
__COMMON_RAM_START                CONSTANT      00000070            112
__CONFIG_END                      CONSTANT      00002007           8199
__CONFIG_START                    CONSTANT      00002007           8199
__EEPROM_END                      CONSTANT      000021FF           8703
__EEPROM_START                    CONSTANT      00002100           8448
__GPUTILS_SVN_VERSION             CONSTANT      00000505           1285
__GPUTILS_VERSION_MAJOR           CONSTANT      00000001              1
__GPUTILS_VERSION_MICRO           CONSTANT      00000000              0
__GPUTILS_VERSION_MINOR           CONSTANT      00000005              5
__IDLOCS_END                      CONSTANT      00002003           8195
__IDLOCS_START                    CONSTANT      00002000           8192
__NUM_BANKS                       CONSTANT      00000004              4
__NUM_PAGES                       CONSTANT      00000004              4
__PAGE_0                          CONSTANT      00000000              0
__PAGE_1                          CONSTANT      00000800           2048
__PAGE_2                          CONSTANT      00001000           4096
__PAGE_3                          CONSTANT      00001800           6144
__PAGE_BITS                       CONSTANT      00001800           6144
__PAGE_FIRST                      CONSTANT      00000000              0
__PAGE_INV                        CONSTANT      FFFFFFFF             -1
__PAGE_LAST                       CONSTANT      00001800           6144
__PAGE_MASK                       CONSTANT      000007FF           2047
gpasm-1.5.0 #1285 (Sep 12 2016) obj\Debug\gpi   7-19-2020  03:04:18         PAGE 82


SYMBOL TABLE
  LABEL                              TYPE        VALUE         VALUE          VALUE
                                                 (hex)         (dec)          (text)

__PAGE_SHIFT                      CONSTANT      0000000B             11
__PAGE_SIZE                       CONSTANT      00000800           2048
__VECTOR_INT                      CONSTANT      00000004              4
__VECTOR_RESET                    CONSTANT      00000000              0
__WHILE_LOOP_COUNT_MAX            CONSTANT      000000FF            255
r0x100A                           STATIC        0000000C             12
r0x100B                           STATIC        0000000D             13
r0x100C                           STATIC        0000000E             14
r0x100D                           STATIC        0000000F             15
r0x100E                           STATIC        00000011             17
r0x100F                           STATIC        00000010             16
r0x1000                           STATIC        00000014             20
r0x1001                           STATIC        00000015             21
r0x1002                           STATIC        00000016             22
r0x1003                           STATIC        00000017             23
r0x1004                           STATIC        00000018             24
r0x1005                           STATIC        00000019             25
r0x1006                           STATIC        00000008              8
r0x1007                           STATIC        00000009              9
r0x1008                           STATIC        0000000A             10
r0x1009                           STATIC        0000000B             11
r0x1010                           STATIC        00000012             18
r0x1011                           STATIC        00000013             19
r0x1012                           STATIC        00000000              0
r0x1013                           STATIC        00000001              1
r0x1014                           STATIC        00000002              2
r0x1015                           STATIC        00000003              3
r0x1016                           STATIC        00000004              4
r0x1017                           STATIC        00000005              5
r0x1018                           STATIC        00000006              6
r0x1019                           STATIC        00000007              7

Errors   :     0
Warnings :     0 reported,     0 suppressed
Messages :     0 reported,     0 suppressed

