gpasm-1.5.0 #1285 (Sep 12 2016) obj\Debug\PB.   7-19-2020  03:04:20         PAGE  1


LOC    OBJECT CODE    LINE  SOURCE TEXT
  VALUE

                      00001 ;--------------------------------------------------------
                      00002 ; File Created by SDCC : free open source ANSI-C Compiler
                      00003 ; Version 4.0.0 #11528 (MINGW64)
                      00004 ;--------------------------------------------------------
                      00005 ; PIC port for the 14-bit core
                      00006 ;--------------------------------------------------------
                      00007         .file   "PB.c"
                      00008         list    p=16f877a
                      00009         radix dec
                      00010         include "p16f877a.inc"
                      00001         LIST
                      00002 
                      00003 ;==========================================================================
                      00004 ; Build date : Oct 21 2015
                      00005 ;  MPASM PIC16F877A processor include
                      00006 ; 
                      00007 ;  (c) Copyright 1999-2015 Microchip Technology, All rights reserved
                      00008 ;==========================================================================
                      00009 
                      00567         LIST
                      00011 ;--------------------------------------------------------
                      00012 ; external declarations
                      00013 ;--------------------------------------------------------
  0000                00014         extern  __muluchar
  0000                00015         extern  _GPIO_GetPortPinState
  0000                00016         extern  _GPIO_InitPortPin
                      00017 
  0000                00018         extern PSAVE
  0000                00019         extern SSAVE
  0000                00020         extern WSAVE
  0000                00021         extern STK12
  0000                00022         extern STK11
  0000                00023         extern STK10
  0000                00024         extern STK09
  0000                00025         extern STK08
  0000                00026         extern STK07
  0000                00027         extern STK06
  0000                00028         extern STK05
  0000                00029         extern STK04
  0000                00030         extern STK03
  0000                00031         extern STK02
  0000                00032         extern STK01
  0000                00033         extern STK00
                      00034 ;--------------------------------------------------------
                      00035 ; global declarations
                      00036 ;--------------------------------------------------------
  0000                00037         global  _PB_Init
  0000                00038         global  _PB_Update
  0000                00039         global  _PB_GetState
                      00040 
                      00041 ;--------------------------------------------------------
                      00042 ; global definitions
                      00043 ;--------------------------------------------------------
gpasm-1.5.0 #1285 (Sep 12 2016) obj\Debug\PB.   7-19-2020  03:04:20         PAGE  2


LOC    OBJECT CODE    LINE  SOURCE TEXT
  VALUE

                      00044 UD_PB_0 udata
                      00045 ; FPB_pb_info_0_0 == .
0000                  00046 _pb_info        res     12
                      00047 
                      00048 ;--------------------------------------------------------
                      00049 ; absolute symbol definitions
                      00050 ;--------------------------------------------------------
                      00051 ;--------------------------------------------------------
                      00052 ; compiler-defined variables
                      00053 ;--------------------------------------------------------
                      00054 UDL_PB_0        udata
0000                  00055 r0x101B res     1
0001                  00056 r0x101C res     1
0002                  00057 r0x101D res     1
0003                  00058 r0x101E res     1
0004                  00059 r0x101F res     1
0005                  00060 r0x100F res     1
0006                  00061 r0x1010 res     1
0007                  00062 r0x1011 res     1
0008                  00063 r0x1012 res     1
0009                  00064 r0x1013 res     1
000A                  00065 r0x1014 res     1
000B                  00066 r0x1015 res     1
000C                  00067 r0x1016 res     1
000D                  00068 r0x1017 res     1
000E                  00069 r0x1018 res     1
000F                  00070 r0x1019 res     1
0010                  00071 r0x101A res     1
0011                  00072 r0x100C res     1
0012                  00073 r0x100D res     1
                      00074 ;--------------------------------------------------------
                      00075 ; initialized data
                      00076 ;--------------------------------------------------------
                      00077 ;--------------------------------------------------------
                      00078 ; initialized absolute data
                      00079 ;--------------------------------------------------------
                      00080 ;--------------------------------------------------------
                      00081 ; overlayable items in internal ram 
                      00082 ;--------------------------------------------------------
                      00083 ;       udata_ovr
                      00084 ;--------------------------------------------------------
                      00085 ; code
                      00086 ;--------------------------------------------------------
                      00087 code_PB code
                      00088 ;***
                      00089 ;  pBlock Stats: dbName = C
                      00090 ;***
                      00091 ;has an exit
                      00092 ;functions called:
                      00093 ;   __muluchar
                      00094 ;   __muluchar
                      00095 ;4 compiler assigned registers:
                      00096 ;   r0x100C
gpasm-1.5.0 #1285 (Sep 12 2016) obj\Debug\PB.   7-19-2020  03:04:20         PAGE  3


LOC    OBJECT CODE    LINE  SOURCE TEXT
  VALUE

                      00097 ;   STK00
                      00098 ;   r0x100D
                      00099 ;   r0x100E
                      00100 ;; Starting pCode block
                      00101 ;;; /home/sdcc-builder/build/sdcc-build/orig/sdcc/src/pic14/gen.c:2358:resultRemat *{*
                      00102 ;;; /home/sdcc-builder/build/sdcc-build/orig/sdcc/src/pic14/gen.c:2802:genLabel *{*
                      00103 ;; ***  genLabel  2805
                      00104 ;;; /home/sdcc-builder/build/sdcc-build/orig/sdcc/src/pic14/gen.c:2358:resultRemat *{*
                      00105 ;;; /home/sdcc-builder/build/sdcc-build/orig/sdcc/src/pic14/gen.c:2382:genFunction *{*
                      00106 ;; ***  genFunction  2384 curr label offset=33previous max_key=68 
                      00107 S_PB__PB_GetState       code
0000                  00108 _PB_GetState:
                      00109 ; 2 exit points
                      00110 ;;; /home/sdcc-builder/build/sdcc-build/orig/sdcc/src/pic14/gen.c:2358:resultRemat *{*
                      00111 ;;; /home/sdcc-builder/build/sdcc-build/orig/sdcc/src/pic14/gen.c:7642:genReceive *{*
                      00112 ;; ***  genReceive  7643
                      00113 ;;      708 register type nRegs=1
                      00114 ;;; /home/sdcc-builder/build/sdcc-build/orig/sdcc/src/pic14/gen.c:1929:assignResultValue *{*
                      00115 ;; ***  assignResultValue  1931
                      00116 ;;      line = 1933 result -=-, size=0, left AOP_REG=r0x1057, size=1, right -=-, size=0
                      00117 ;; >>> /home/sdcc-builder/build/sdcc-build/orig/sdcc/src/pic14/gen.c:1407:movwf
                      00118 ;;      1126 rIdx = r0x1057 
                      00119         .line   129; "PB.c"     tPB_State PB_GetState(tPB pb)
0000   0??? 0???      00120         BANKSEL r0x100C
0002   00??           00121         MOVWF   r0x100C
                      00122 ;;; /home/sdcc-builder/build/sdcc-build/orig/sdcc/src/pic14/gen.c:2358:resultRemat *{*
                      00123 ;;; /home/sdcc-builder/build/sdcc-build/orig/sdcc/src/pic14/gen.c:2358:resultRemat *{*
                      00124 ;;; /home/sdcc-builder/build/sdcc-build/orig/sdcc/src/pic14/gen.c:2358:resultRemat *{*
                      00125 ;;; /home/sdcc-builder/build/sdcc-build/orig/sdcc/src/pic14/gen.c:2358:resultRemat *{*
                      00126 ;;; /home/sdcc-builder/build/sdcc-build/orig/sdcc/src/pic14/gen.c:2108:genCall *{*
                      00127 ;; ***  genCall  2110
                      00128 ;;      708 register type nRegs=1
                      00129 ;;      2158 left AOP_LIT
                      00130 ;;; /home/sdcc-builder/build/sdcc-build/orig/sdcc/src/pic14/gen.c:1357:mov2w_op *{*
                      00131 ;; >>> /home/sdcc-builder/build/sdcc-build/orig/sdcc/src/pic14/gen.c:1375:mov2w_op
                      00132         .line   133; "PB.c"     ret = pb_info[pb].state;
0003   3003           00133         MOVLW   0x03
                      00134 ;;      708 register type nRegs=1
                      00135 ;;      2158 left AOP_REG
                      00136 ;; >>> /home/sdcc-builder/build/sdcc-build/orig/sdcc/src/pic14/gen.c:2166:genCall
                      00137 ;; ***  popRegFromIdx,1059  , rIdx=0x7f
0004   00??           00138         MOVWF   STK00
                      00139 ;;; /home/sdcc-builder/build/sdcc-build/orig/sdcc/src/pic14/gen.c:1357:mov2w_op *{*
                      00140 ;; ***  mov2w  1395  offset=0
                      00141 ;; >>> /home/sdcc-builder/build/sdcc-build/orig/sdcc/src/pic14/gen.c:1400:mov2w
                      00142 ;;      1126 rIdx = r0x1057 
0005   08??           00143         MOVF    r0x100C,W
                      00144 ;; >>> /home/sdcc-builder/build/sdcc-build/orig/sdcc/src/pic14/gen.c:2207:genCall
0006   0??? 0???      00145         PAGESEL __muluchar
                      00146 ;; >>> /home/sdcc-builder/build/sdcc-build/orig/sdcc/src/pic14/gen.c:2215:genCall
0008   2???           00147         CALL    __muluchar
                      00148 ;; >>> /home/sdcc-builder/build/sdcc-build/orig/sdcc/src/pic14/gen.c:2223:genCall
0009   0??? 0???      00149         PAGESEL $
gpasm-1.5.0 #1285 (Sep 12 2016) obj\Debug\PB.   7-19-2020  03:04:20         PAGE  4


LOC    OBJECT CODE    LINE  SOURCE TEXT
  VALUE

                      00150 ;;      708 register type nRegs=2
                      00151 ;;; /home/sdcc-builder/build/sdcc-build/orig/sdcc/src/pic14/gen.c:1929:assignResultValue *{*
                      00152 ;; ***  assignResultValue  1931
                      00153 ;;      line = 1933 result -=-, size=0, left AOP_REG=r0x1057, size=2, right -=-, size=0
                      00154 ;; >>> /home/sdcc-builder/build/sdcc-build/orig/sdcc/src/pic14/gen.c:1407:movwf
                      00155 ;;      1126 rIdx = r0x1058 
000B   0??? 0???      00156         BANKSEL r0x100D
000D   00??           00157         MOVWF   r0x100D
                      00158 ;; >>> /home/sdcc-builder/build/sdcc-build/orig/sdcc/src/pic14/gen.c:1437:get_returnvalue
                      00159 ;; ***  popRegFromIdx,1059  , rIdx=0x7f
000E   08??           00160         MOVF    STK00,W
                      00161 ;; >>> /home/sdcc-builder/build/sdcc-build/orig/sdcc/src/pic14/gen.c:1407:movwf
                      00162 ;;      1126 rIdx = r0x1057 
000F   00??           00163         MOVWF   r0x100C
0010   3E??           00164         ADDLW   (_pb_info + 0)
                      00165 ;; >>> /home/sdcc-builder/build/sdcc-build/orig/sdcc/src/pic14/genarith.c:833:genPlus
                      00166 ;;      1126 rIdx = r0x1057 
0011   00??           00167         MOVWF   r0x100C
                      00168 ;; >>> /home/sdcc-builder/build/sdcc-build/orig/sdcc/src/pic14/genarith.c:849:genPlus
                      00169 ;;      1126 rIdx = r0x1058 
0012   08??           00170         MOVF    r0x100D,W
                      00171 ;; >>> /home/sdcc-builder/build/sdcc-build/orig/sdcc/src/pic14/genarith.c:850:genPlus
0013   1803           00172         BTFSC   STATUS,0
                      00173 ;; >>> /home/sdcc-builder/build/sdcc-build/orig/sdcc/src/pic14/genarith.c:851:genPlus
                      00174 ;;      1126 rIdx = r0x1058 
0014   0F??           00175         INCFSZ  r0x100D,W
                      00176 ;; >>> /home/sdcc-builder/build/sdcc-build/orig/sdcc/src/pic14/genarith.c:852:genPlus
0015   3E??           00177         ADDLW   high (_pb_info + 0)
                      00178 ;; >>> /home/sdcc-builder/build/sdcc-build/orig/sdcc/src/pic14/genarith.c:853:genPlus
                      00179 ;;      1126 rIdx = r0x1058 
0016   00??           00180         MOVWF   r0x100D
                      00181 ;;; /home/sdcc-builder/build/sdcc-build/orig/sdcc/src/pic14/gen.c:2358:resultRemat *{*
                      00182 ;; ***  genPlus  707
                      00183 ;;; /home/sdcc-builder/build/sdcc-build/orig/sdcc/src/pic14/genarith.c:708:genPlus *{*
                      00184 ;;      708 register type nRegs=2
                      00185 ;;      708 register type nRegs=2
                      00186 ;;      line = 714 result AOP_REG=r0x1057, size=2, left AOP_REG=r0x1057, size=2, right AOP_LIT=0x02, siz
                            e=1
                      00187 ;;; /home/sdcc-builder/build/sdcc-build/orig/sdcc/src/pic14/genarith.c:159:genPlusIncr *{*
                      00188 ;; ***  genPlusIncr  161
                      00189 ;;      result AOP_REG, left AOP_REG, right AOP_LIT
                      00190 ;;      genPlusIncr  173
                      00191 ;;      genPlusIncr  197
                      00192 ;;      adding lit to something. size 2
                      00193 ;;; /home/sdcc-builder/build/sdcc-build/orig/sdcc/src/pic14/genarith.c:286:genAddLit *{*
                      00194 ;; ***  genAddLit  287
                      00195 ;; hi = 0       genAddLit  351
                      00196 ;; >>> /home/sdcc-builder/build/sdcc-build/orig/sdcc/src/pic14/genarith.c:367:genAddLit
0017   3002           00197         MOVLW   0x02
                      00198 ;; >>> /home/sdcc-builder/build/sdcc-build/orig/sdcc/src/pic14/genarith.c:368:genAddLit
                      00199 ;;      1126 rIdx = r0x1057 
0018   07??           00200         ADDWF   r0x100C,F
                      00201 ;; >>> /home/sdcc-builder/build/sdcc-build/orig/sdcc/src/pic14/genarith.c:369:genAddLit
gpasm-1.5.0 #1285 (Sep 12 2016) obj\Debug\PB.   7-19-2020  03:04:20         PAGE  5


LOC    OBJECT CODE    LINE  SOURCE TEXT
  VALUE

0019   1803           00202         BTFSC   STATUS,0
                      00203 ;; >>> /home/sdcc-builder/build/sdcc-build/orig/sdcc/src/pic14/genarith.c:370:genAddLit
                      00204 ;;      1126 rIdx = r0x1058 
001A   0A??           00205         INCF    r0x100D,F
                      00206 ;; ***  addSign  1087
                      00207 ;;; /home/sdcc-builder/build/sdcc-build/orig/sdcc/src/pic14/genarith.c:1088:addSign *{*
                      00208 ;;; /home/sdcc-builder/build/sdcc-build/orig/sdcc/src/pic14/gen.c:2358:resultRemat *{*
                      00209 ;;; /home/sdcc-builder/build/sdcc-build/orig/sdcc/src/pic14/gen.c:6399:genPointerGet *{*
                      00210 ;; ***  genPointerGet  6400
                      00211 ;;; /home/sdcc-builder/build/sdcc-build/orig/sdcc/src/pic14/gen.c:6285:genNearPointerGet *{*
                      00212 ;; ***  genNearPointerGet  6286
                      00213 ;;      708 register type nRegs=2
                      00214 ;; ***  genNearPointerGet  6302
                      00215 ;;      708 register type nRegs=1
                      00216 ;;; /home/sdcc-builder/build/sdcc-build/orig/sdcc/src/pic14/gen.c:1357:mov2w_op *{*
                      00217 ;; ***  mov2w  1395  offset=0
                      00218 ;; >>> /home/sdcc-builder/build/sdcc-build/orig/sdcc/src/pic14/gen.c:1400:mov2w
                      00219 ;;      1126 rIdx = r0x1057 
001B   08??           00220         MOVF    r0x100C,W
                      00221 ;; >>> /home/sdcc-builder/build/sdcc-build/orig/sdcc/src/pic14/gen.c:5851:setup_fsr
001C   1283 1303      00222         BANKSEL FSR
001E   0084           00223         MOVWF   FSR
                      00224 ;;; /home/sdcc-builder/build/sdcc-build/orig/sdcc/src/pic14/gen.c:5802:SetIrp *{*
                      00225 ;; >>> /home/sdcc-builder/build/sdcc-build/orig/sdcc/src/pic14/gen.c:5829:SetIrp
001F   1383           00226         BCF     STATUS,7
                      00227 ;; >>> /home/sdcc-builder/build/sdcc-build/orig/sdcc/src/pic14/gen.c:5832:SetIrp
0020   0??? 0???      00228         BANKSEL r0x100D
0022   18??           00229         BTFSC   r0x100D,0
                      00230 ;; >>> /home/sdcc-builder/build/sdcc-build/orig/sdcc/src/pic14/gen.c:5833:SetIrp
0023   1783           00231         BSF     STATUS,7
                      00232 ;; >>> /home/sdcc-builder/build/sdcc-build/orig/sdcc/src/pic14/gen.c:6060:emitPtrGet
0024   1283 1303      00233         BANKSEL INDF
0026   0800           00234         MOVF    INDF,W
                      00235 ;; >>> /home/sdcc-builder/build/sdcc-build/orig/sdcc/src/pic14/gen.c:1407:movwf
                      00236 ;;      1126 rIdx = r0x1059 
                      00237 ;;1     MOVWF   r0x100E
                      00238         .line   136; "PB.c"     }
0027   0008           00239         RETURN  
                      00240 ; exit point of _PB_GetState
                      00241 
                      00242 ;***
                      00243 ;  pBlock Stats: dbName = C
                      00244 ;***
                      00245 ;has an exit
                      00246 ;functions called:
                      00247 ;   _GPIO_GetPortPinState
                      00248 ;   _GPIO_GetPortPinState
                      00249 ;   _GPIO_GetPortPinState
                      00250 ;   _GPIO_GetPortPinState
                      00251 ;   _GPIO_GetPortPinState
                      00252 ;   _GPIO_GetPortPinState
                      00253 ;   _GPIO_GetPortPinState
                      00254 ;   _GPIO_GetPortPinState
gpasm-1.5.0 #1285 (Sep 12 2016) obj\Debug\PB.   7-19-2020  03:04:20         PAGE  6


LOC    OBJECT CODE    LINE  SOURCE TEXT
  VALUE

                      00255 ;13 compiler assigned registers:
                      00256 ;   r0x100F
                      00257 ;   r0x1010
                      00258 ;   r0x1011
                      00259 ;   r0x1012
                      00260 ;   r0x1013
                      00261 ;   r0x1014
                      00262 ;   r0x1015
                      00263 ;   r0x1016
                      00264 ;   r0x1017
                      00265 ;   r0x1018
                      00266 ;   STK00
                      00267 ;   r0x1019
                      00268 ;   r0x101A
                      00269 ;; Starting pCode block
                      00270 ;;; /home/sdcc-builder/build/sdcc-build/orig/sdcc/src/pic14/gen.c:2358:resultRemat *{*
                      00271 ;;; /home/sdcc-builder/build/sdcc-build/orig/sdcc/src/pic14/gen.c:2802:genLabel *{*
                      00272 ;; ***  genLabel  2805
                      00273 ;;; /home/sdcc-builder/build/sdcc-build/orig/sdcc/src/pic14/gen.c:2358:resultRemat *{*
                      00274 ;;; /home/sdcc-builder/build/sdcc-build/orig/sdcc/src/pic14/gen.c:2382:genFunction *{*
                      00275 ;; ***  genFunction  2384 curr label offset=4previous max_key=25 
                      00276 S_PB__PB_Update code
0000                  00277 _PB_Update:
                      00278 ; 2 exit points
                      00279 ;;; /home/sdcc-builder/build/sdcc-build/orig/sdcc/src/pic14/gen.c:2358:resultRemat *{*
                      00280 ;;; /home/sdcc-builder/build/sdcc-build/orig/sdcc/src/pic14/gen.c:2358:resultRemat *{*
                      00281 ;;; /home/sdcc-builder/build/sdcc-build/orig/sdcc/src/pic14/gen.c:7192:genAssign *{*
                      00282 ;; ***  genAssign  7193
                      00283 ;;      708 register type nRegs=1
                      00284 ;;      line = 7202 result AOP_REG=r0x104B, size=1, left -=-, size=0, right AOP_LIT=0x00, size=1
                      00285 ;; ***  genAssign  7286
                      00286 ;; >>> /home/sdcc-builder/build/sdcc-build/orig/sdcc/src/pic14/gen.c:7298:genAssign
                      00287 ;;      1126 rIdx = r0x104B 
                      00288         .line   66; "PB.c"      for (current_button = PB_PLUS; current_button < PB_UNUSED_2; current_but
                            ton++)
0000   0??? 0???      00289         BANKSEL r0x100F
0002   01??           00290         CLRF    r0x100F
                      00291 ;;; /home/sdcc-builder/build/sdcc-build/orig/sdcc/src/pic14/gen.c:2358:resultRemat *{*
                      00292 ;;; /home/sdcc-builder/build/sdcc-build/orig/sdcc/src/pic14/gen.c:7192:genAssign *{*
                      00293 ;; ***  genAssign  7193
                      00294 ;;      708 register type nRegs=2
                      00295 ;;      line = 7202 result AOP_REG=r0x104C, size=2, left -=-, size=0, right AOP_LIT=0x00, size=2
                      00296 ;; ***  genAssign  7286
                      00297 ;; >>> /home/sdcc-builder/build/sdcc-build/orig/sdcc/src/pic14/gen.c:7298:genAssign
                      00298 ;;      1126 rIdx = r0x104C 
0003   01??           00299         CLRF    r0x1010
                      00300 ;; ***  genAssign  7286
                      00301 ;; >>> /home/sdcc-builder/build/sdcc-build/orig/sdcc/src/pic14/gen.c:7298:genAssign
                      00302 ;;      1126 rIdx = r0x104D 
0004   01??           00303         CLRF    r0x1011
                      00304 ;;; /home/sdcc-builder/build/sdcc-build/orig/sdcc/src/pic14/gen.c:2358:resultRemat *{*
                      00305 ;;; /home/sdcc-builder/build/sdcc-build/orig/sdcc/src/pic14/gen.c:7192:genAssign *{*
                      00306 ;; ***  genAssign  7193
gpasm-1.5.0 #1285 (Sep 12 2016) obj\Debug\PB.   7-19-2020  03:04:20         PAGE  7


LOC    OBJECT CODE    LINE  SOURCE TEXT
  VALUE

                      00307 ;;      708 register type nRegs=2
                      00308 ;;      line = 7202 result AOP_REG=r0x104E, size=2, left -=-, size=0, right AOP_LIT=0x00, size=2
                      00309 ;; ***  genAssign  7286
                      00310 ;; >>> /home/sdcc-builder/build/sdcc-build/orig/sdcc/src/pic14/gen.c:7298:genAssign
                      00311 ;;      1126 rIdx = r0x104E 
0005   01??           00312         CLRF    r0x1012
                      00313 ;; ***  genAssign  7286
                      00314 ;; >>> /home/sdcc-builder/build/sdcc-build/orig/sdcc/src/pic14/gen.c:7298:genAssign
                      00315 ;;      1126 rIdx = r0x104F 
0006   01??           00316         CLRF    r0x1013
                      00317 ;;; /home/sdcc-builder/build/sdcc-build/orig/sdcc/src/pic14/gen.c:2358:resultRemat *{*
                      00318 ;;; /home/sdcc-builder/build/sdcc-build/orig/sdcc/src/pic14/gen.c:2802:genLabel *{*
                      00319 ;; ***  genLabel  2805
                      00320 ;;; /home/sdcc-builder/build/sdcc-build/orig/sdcc/src/pic14/gen.c:2358:resultRemat *{*
                      00321 ;; ***  genPlus  707
                      00322 ;;; /home/sdcc-builder/build/sdcc-build/orig/sdcc/src/pic14/genarith.c:708:genPlus *{*
                      00323 ;;      627
                      00324 ;;      aopForRemat 406
                      00325 ;;      432: rname _pb_info, val 0, const = 0
                      00326 ;;      708 register type nRegs=2
                      00327 ;;      708 register type nRegs=2
                      00328 ;;      837: aopGet AOP_PCODE type PO_IMMEDIATE
                      00329 ;;      _pb_info
                      00330 ;;      line = 714 result AOP_REG=r0x1050, size=2, left AOP_PCODE=_pb_info, size=2, right AOP_REG=r0x104
                            E, size=2
                      00331 ;;; /home/sdcc-builder/build/sdcc-build/orig/sdcc/src/pic14/genarith.c:159:genPlusIncr *{*
                      00332 ;; ***  genPlusIncr  161
                      00333 ;;      result AOP_REG, left AOP_PCODE, right AOP_REG
                      00334 ;; ***  genPlus  814
                      00335 ;;      837: aopGet AOP_PCODE type PO_IMMEDIATE
                      00336 ;;      _pb_info
                      00337 ;; >>> /home/sdcc-builder/build/sdcc-build/orig/sdcc/src/pic14/genarith.c:823:genPlus
                      00338 ;;      1126 rIdx = r0x104E 
0007                  00339 _00157_DS_:
                      00340         .line   69; "PB.c"      pb_info[current_button].samples[0] = pb_info[current_button].samples[1];
0007   0??? 0???      00341         BANKSEL r0x1012
0009   08??           00342         MOVF    r0x1012,W
                      00343 ;; >>> /home/sdcc-builder/build/sdcc-build/orig/sdcc/src/pic14/genarith.c:832:genPlus
000A   3E??           00344         ADDLW   (_pb_info + 0)
                      00345 ;; >>> /home/sdcc-builder/build/sdcc-build/orig/sdcc/src/pic14/genarith.c:833:genPlus
                      00346 ;;      1126 rIdx = r0x1050 
000B   00??           00347         MOVWF   r0x1014
                      00348 ;; >>> /home/sdcc-builder/build/sdcc-build/orig/sdcc/src/pic14/genarith.c:880:genPlus
000C   30??           00349         MOVLW   high (_pb_info + 0)
                      00350 ;; >>> /home/sdcc-builder/build/sdcc-build/orig/sdcc/src/pic14/genarith.c:881:genPlus
                      00351 ;;      1126 rIdx = r0x1051 
000D   00??           00352         MOVWF   r0x1015
                      00353 ;; >>> /home/sdcc-builder/build/sdcc-build/orig/sdcc/src/pic14/genarith.c:883:genPlus
                      00354 ;;      1126 rIdx = r0x104F 
000E   08??           00355         MOVF    r0x1013,W
                      00356 ;; >>> /home/sdcc-builder/build/sdcc-build/orig/sdcc/src/pic14/genarith.c:884:genPlus
000F   1803           00357         BTFSC   STATUS,0
                      00358 ;; >>> /home/sdcc-builder/build/sdcc-build/orig/sdcc/src/pic14/genarith.c:885:genPlus
gpasm-1.5.0 #1285 (Sep 12 2016) obj\Debug\PB.   7-19-2020  03:04:20         PAGE  8


LOC    OBJECT CODE    LINE  SOURCE TEXT
  VALUE

                      00359 ;;      1126 rIdx = r0x104F 
0010   0F??           00360         INCFSZ  r0x1013,W
                      00361 ;; >>> /home/sdcc-builder/build/sdcc-build/orig/sdcc/src/pic14/genarith.c:886:genPlus
                      00362 ;;      1126 rIdx = r0x1051 
0011   07??           00363         ADDWF   r0x1015,F
                      00364 ;;; /home/sdcc-builder/build/sdcc-build/orig/sdcc/src/pic14/gen.c:2358:resultRemat *{*
                      00365 ;; ***  genPlus  707
                      00366 ;;; /home/sdcc-builder/build/sdcc-build/orig/sdcc/src/pic14/genarith.c:708:genPlus *{*
                      00367 ;;      627
                      00368 ;;      aopForRemat 406
                      00369 ;;      432: rname _pb_info, val 0, const = 0
                      00370 ;;      708 register type nRegs=2
                      00371 ;;      708 register type nRegs=2
                      00372 ;;      837: aopGet AOP_PCODE type PO_IMMEDIATE
                      00373 ;;      _pb_info
                      00374 ;;      line = 714 result AOP_REG=r0x1052, size=2, left AOP_PCODE=_pb_info, size=2, right AOP_REG=r0x104
                            E, size=2
                      00375 ;;; /home/sdcc-builder/build/sdcc-build/orig/sdcc/src/pic14/genarith.c:159:genPlusIncr *{*
                      00376 ;; ***  genPlusIncr  161
                      00377 ;;      result AOP_REG, left AOP_PCODE, right AOP_REG
                      00378 ;; ***  genPlus  814
                      00379 ;;      837: aopGet AOP_PCODE type PO_IMMEDIATE
                      00380 ;;      _pb_info
                      00381 ;; >>> /home/sdcc-builder/build/sdcc-build/orig/sdcc/src/pic14/genarith.c:823:genPlus
                      00382 ;;      1126 rIdx = r0x104E 
0012   08??           00383         MOVF    r0x1012,W
                      00384 ;; >>> /home/sdcc-builder/build/sdcc-build/orig/sdcc/src/pic14/genarith.c:832:genPlus
0013   3E??           00385         ADDLW   (_pb_info + 0)
                      00386 ;; >>> /home/sdcc-builder/build/sdcc-build/orig/sdcc/src/pic14/genarith.c:833:genPlus
                      00387 ;;      1126 rIdx = r0x1052 
0014   00??           00388         MOVWF   r0x1016
                      00389 ;; >>> /home/sdcc-builder/build/sdcc-build/orig/sdcc/src/pic14/genarith.c:880:genPlus
0015   30??           00390         MOVLW   high (_pb_info + 0)
                      00391 ;; >>> /home/sdcc-builder/build/sdcc-build/orig/sdcc/src/pic14/genarith.c:881:genPlus
                      00392 ;;      1126 rIdx = r0x1053 
0016   00??           00393         MOVWF   r0x1017
                      00394 ;; >>> /home/sdcc-builder/build/sdcc-build/orig/sdcc/src/pic14/genarith.c:883:genPlus
                      00395 ;;      1126 rIdx = r0x104F 
0017   08??           00396         MOVF    r0x1013,W
                      00397 ;; >>> /home/sdcc-builder/build/sdcc-build/orig/sdcc/src/pic14/genarith.c:884:genPlus
0018   1803           00398         BTFSC   STATUS,0
                      00399 ;; >>> /home/sdcc-builder/build/sdcc-build/orig/sdcc/src/pic14/genarith.c:885:genPlus
                      00400 ;;      1126 rIdx = r0x104F 
0019   0F??           00401         INCFSZ  r0x1013,W
                      00402 ;; >>> /home/sdcc-builder/build/sdcc-build/orig/sdcc/src/pic14/genarith.c:886:genPlus
                      00403 ;;      1126 rIdx = r0x1053 
001A   07??           00404         ADDWF   r0x1017,F
                      00405 ;;; /home/sdcc-builder/build/sdcc-build/orig/sdcc/src/pic14/gen.c:2358:resultRemat *{*
                      00406 ;; ***  genPlus  707
                      00407 ;;; /home/sdcc-builder/build/sdcc-build/orig/sdcc/src/pic14/genarith.c:708:genPlus *{*
                      00408 ;;      708 register type nRegs=2
                      00409 ;;      708 register type nRegs=2
                      00410 ;;      line = 714 result AOP_REG=r0x1052, size=2, left AOP_REG=r0x1052, size=2, right AOP_LIT=0x01, siz
gpasm-1.5.0 #1285 (Sep 12 2016) obj\Debug\PB.   7-19-2020  03:04:20         PAGE  9


LOC    OBJECT CODE    LINE  SOURCE TEXT
  VALUE

                            e=1
                      00411 ;;; /home/sdcc-builder/build/sdcc-build/orig/sdcc/src/pic14/genarith.c:159:genPlusIncr *{*
                      00412 ;; ***  genPlusIncr  161
                      00413 ;;      result AOP_REG, left AOP_REG, right AOP_LIT
                      00414 ;;      genPlusIncr  173
                      00415 ;; >>> /home/sdcc-builder/build/sdcc-build/orig/sdcc/src/pic14/genarith.c:185:genPlusIncr
                      00416 ;;      1126 rIdx = r0x1052 
001B   0A??           00417         INCF    r0x1016,F
                      00418 ;; >>> /home/sdcc-builder/build/sdcc-build/orig/sdcc/src/pic14/genarith.c:189:genPlusIncr
001C   1903           00419         BTFSC   STATUS,2
                      00420 ;; >>> /home/sdcc-builder/build/sdcc-build/orig/sdcc/src/pic14/genarith.c:190:genPlusIncr
                      00421 ;;      1126 rIdx = r0x1053 
001D   0A??           00422         INCF    r0x1017,F
                      00423 ;;; /home/sdcc-builder/build/sdcc-build/orig/sdcc/src/pic14/gen.c:2358:resultRemat *{*
                      00424 ;;; /home/sdcc-builder/build/sdcc-build/orig/sdcc/src/pic14/gen.c:6399:genPointerGet *{*
                      00425 ;; ***  genPointerGet  6400
                      00426 ;;; /home/sdcc-builder/build/sdcc-build/orig/sdcc/src/pic14/gen.c:6285:genNearPointerGet *{*
                      00427 ;; ***  genNearPointerGet  6286
                      00428 ;;      708 register type nRegs=2
                      00429 ;; ***  genNearPointerGet  6302
                      00430 ;;      708 register type nRegs=1
                      00431 ;;; /home/sdcc-builder/build/sdcc-build/orig/sdcc/src/pic14/gen.c:1357:mov2w_op *{*
                      00432 ;; ***  mov2w  1395  offset=0
                      00433 ;; >>> /home/sdcc-builder/build/sdcc-build/orig/sdcc/src/pic14/gen.c:1400:mov2w
                      00434 ;;      1126 rIdx = r0x1052 
001E   08??           00435         MOVF    r0x1016,W
                      00436 ;; >>> /home/sdcc-builder/build/sdcc-build/orig/sdcc/src/pic14/gen.c:5851:setup_fsr
001F   1283 1303      00437         BANKSEL FSR
0021   0084           00438         MOVWF   FSR
                      00439 ;;; /home/sdcc-builder/build/sdcc-build/orig/sdcc/src/pic14/gen.c:5802:SetIrp *{*
                      00440 ;; >>> /home/sdcc-builder/build/sdcc-build/orig/sdcc/src/pic14/gen.c:5829:SetIrp
0022   1383           00441         BCF     STATUS,7
                      00442 ;; >>> /home/sdcc-builder/build/sdcc-build/orig/sdcc/src/pic14/gen.c:5832:SetIrp
0023   0??? 0???      00443         BANKSEL r0x1017
0025   18??           00444         BTFSC   r0x1017,0
                      00445 ;; >>> /home/sdcc-builder/build/sdcc-build/orig/sdcc/src/pic14/gen.c:5833:SetIrp
0026   1783           00446         BSF     STATUS,7
                      00447 ;; >>> /home/sdcc-builder/build/sdcc-build/orig/sdcc/src/pic14/gen.c:6060:emitPtrGet
0027   1283 1303      00448         BANKSEL INDF
0029   0800           00449         MOVF    INDF,W
                      00450 ;; >>> /home/sdcc-builder/build/sdcc-build/orig/sdcc/src/pic14/gen.c:1407:movwf
                      00451 ;;      1126 rIdx = r0x1054 
002A   0??? 0???      00452         BANKSEL r0x1018
002C   00??           00453         MOVWF   r0x1018
                      00454 ;;; /home/sdcc-builder/build/sdcc-build/orig/sdcc/src/pic14/gen.c:2358:resultRemat *{*
                      00455 ;;; /home/sdcc-builder/build/sdcc-build/orig/sdcc/src/pic14/gen.c:6951:genPointerSet *{*
                      00456 ;; ***  genPointerSet  6952
                      00457 ;;; /home/sdcc-builder/build/sdcc-build/orig/sdcc/src/pic14/gen.c:6871:genNearPointerSet *{*
                      00458 ;; ***  genNearPointerSet  6872
                      00459 ;;      708 register type nRegs=2
                      00460 ;; ***  genNearPointerSet  6886
                      00461 ;;      708 register type nRegs=1
                      00462 ;;      line = 6888 result AOP_REG=r0x1050, size=2, left -=-, size=0, right AOP_REG=r0x1054, size=1
gpasm-1.5.0 #1285 (Sep 12 2016) obj\Debug\PB.   7-19-2020  03:04:20         PAGE 10


LOC    OBJECT CODE    LINE  SOURCE TEXT
  VALUE

                      00463 ;;; /home/sdcc-builder/build/sdcc-build/orig/sdcc/src/pic14/gen.c:1357:mov2w_op *{*
                      00464 ;; ***  mov2w  1395  offset=0
                      00465 ;; >>> /home/sdcc-builder/build/sdcc-build/orig/sdcc/src/pic14/gen.c:1400:mov2w
                      00466 ;;      1126 rIdx = r0x1050 
002D   08??           00467         MOVF    r0x1014,W
                      00468 ;; >>> /home/sdcc-builder/build/sdcc-build/orig/sdcc/src/pic14/gen.c:5851:setup_fsr
002E   1283 1303      00469         BANKSEL FSR
0030   0084           00470         MOVWF   FSR
                      00471 ;;; /home/sdcc-builder/build/sdcc-build/orig/sdcc/src/pic14/gen.c:5802:SetIrp *{*
                      00472 ;; >>> /home/sdcc-builder/build/sdcc-build/orig/sdcc/src/pic14/gen.c:5829:SetIrp
0031   1383           00473         BCF     STATUS,7
                      00474 ;; >>> /home/sdcc-builder/build/sdcc-build/orig/sdcc/src/pic14/gen.c:5832:SetIrp
0032   0??? 0???      00475         BANKSEL r0x1015
0034   18??           00476         BTFSC   r0x1015,0
                      00477 ;; >>> /home/sdcc-builder/build/sdcc-build/orig/sdcc/src/pic14/gen.c:5833:SetIrp
0035   1783           00478         BSF     STATUS,7
                      00479 ;; >>> /home/sdcc-builder/build/sdcc-build/orig/sdcc/src/pic14/gen.c:6638:emitPtrPut
                      00480 ;;      1126 rIdx = r0x1054 
0036   08??           00481         MOVF    r0x1018,W
                      00482 ;; >>> /home/sdcc-builder/build/sdcc-build/orig/sdcc/src/pic14/gen.c:6639:emitPtrPut
0037   1283 1303      00483         BANKSEL INDF
0039   0080           00484         MOVWF   INDF
                      00485 ;; ***  genNearPointerSet  6905
                      00486 ;;; /home/sdcc-builder/build/sdcc-build/orig/sdcc/src/pic14/gen.c:2358:resultRemat *{*
                      00487 ;;; /home/sdcc-builder/build/sdcc-build/orig/sdcc/src/pic14/gen.c:3616:genCmpGt *{*
                      00488 ;; ***  genCmpGt  3617
                      00489 ;;      708 register type nRegs=1
                      00490 ;;; /home/sdcc-builder/build/sdcc-build/orig/sdcc/src/pic14/gen.c:3354:genCmp *{*
                      00491 ;;swapping arguments (AOP_TYPEs 1/2)
                      00492 ;;unsigned compare: left >= lit(0x4=4), size=1
                      00493 ;; >>> /home/sdcc-builder/build/sdcc-build/orig/sdcc/src/pic14/gen.c:3325:pic14_mov2w_regOrLit
                      00494         .line   71; "PB.c"      switch(current_button)
003A   3004           00495         MOVLW   0x04
                      00496 ;; >>> /home/sdcc-builder/build/sdcc-build/orig/sdcc/src/pic14/gen.c:3492:genCmp
                      00497 ;;      1126 rIdx = r0x104B 
003B   0??? 0???      00498         BANKSEL r0x100F
003D   02??           00499         SUBWF   r0x100F,W
                      00500 ;;; /home/sdcc-builder/build/sdcc-build/orig/sdcc/src/pic14/gen.c:3297:genSkipc *{*
                      00501 ;; >>> /home/sdcc-builder/build/sdcc-build/orig/sdcc/src/pic14/gen.c:3302:genSkipc
003E   1803           00502         BTFSC   STATUS,0
                      00503 ;; >>> /home/sdcc-builder/build/sdcc-build/orig/sdcc/src/pic14/gen.c:3306:genSkipc
                      00504 ;; ***  popGetLabel  key=6, label offset 33
003F   2???           00505         GOTO    _00139_DS_
                      00506 ;;genSkipc:3307: created from rifx:00000000047A57B0
                      00507 ;;; /home/sdcc-builder/build/sdcc-build/orig/sdcc/src/pic14/gen.c:2358:resultRemat *{*
                      00508 ;;; /home/sdcc-builder/build/sdcc-build/orig/sdcc/src/pic14/gen.c:2358:resultRemat *{*
                      00509 ;;; /home/sdcc-builder/build/sdcc-build/orig/sdcc/src/pic14/gen.c:7337:genJumpTab *{*
                      00510 ;; ***  genJumpTab  7338
                      00511 ;;      708 register type nRegs=1
                      00512 ;; >>> /home/sdcc-builder/build/sdcc-build/orig/sdcc/src/pic14/gen.c:7353:genJumpTab
                      00513 ;; ***  popGetLabel  key=66, label offset 33
0040   30??           00514         MOVLW   HIGH(_00199_DS_)
                      00515 ;; >>> /home/sdcc-builder/build/sdcc-build/orig/sdcc/src/pic14/gen.c:7354:genJumpTab
gpasm-1.5.0 #1285 (Sep 12 2016) obj\Debug\PB.   7-19-2020  03:04:20         PAGE 11


LOC    OBJECT CODE    LINE  SOURCE TEXT
  VALUE

0041   1283 1303      00516         BANKSEL PCLATH
0043   008A           00517         MOVWF   PCLATH
                      00518 ;; >>> /home/sdcc-builder/build/sdcc-build/orig/sdcc/src/pic14/gen.c:7355:genJumpTab
                      00519 ;; ***  popGetLabel  key=66, label offset 33
0044   30??           00520         MOVLW   _00199_DS_
                      00521 ;; >>> /home/sdcc-builder/build/sdcc-build/orig/sdcc/src/pic14/gen.c:7356:genJumpTab
                      00522 ;;      1126 rIdx = r0x104B 
0045   0??? 0???      00523         BANKSEL r0x100F
0047   07??           00524         ADDWF   r0x100F,W
                      00525 ;; >>> /home/sdcc-builder/build/sdcc-build/orig/sdcc/src/pic14/gen.c:7357:genJumpTab
0048   1C03           00526         BTFSS   STATUS,0
0049   2???           00527         GOTO    _00001_DS_
                      00528 ;; >>> /home/sdcc-builder/build/sdcc-build/orig/sdcc/src/pic14/gen.c:7358:genJumpTab
004A   1283 1303      00529         BANKSEL PCLATH
004C   0A8A           00530         INCF    PCLATH,F
                      00531 ;; >>> /home/sdcc-builder/build/sdcc-build/orig/sdcc/src/pic14/gen.c:7359:genJumpTab
004D                  00532 _00001_DS_:
004D   0082           00533         MOVWF   PCL
                      00534 ;; >>> /home/sdcc-builder/build/sdcc-build/orig/sdcc/src/pic14/gen.c:7368:genJumpTab
                      00535 ;; ***  popGetLabel  key=1, label offset 33
004E                  00536 _00199_DS_:
004E   2???           00537         GOTO    _00134_DS_
                      00538 ;; >>> /home/sdcc-builder/build/sdcc-build/orig/sdcc/src/pic14/gen.c:7368:genJumpTab
                      00539 ;; ***  popGetLabel  key=2, label offset 33
004F   2???           00540         GOTO    _00135_DS_
                      00541 ;; >>> /home/sdcc-builder/build/sdcc-build/orig/sdcc/src/pic14/gen.c:7368:genJumpTab
                      00542 ;; ***  popGetLabel  key=3, label offset 33
0050   2???           00543         GOTO    _00136_DS_
                      00544 ;; >>> /home/sdcc-builder/build/sdcc-build/orig/sdcc/src/pic14/gen.c:7368:genJumpTab
                      00545 ;; ***  popGetLabel  key=4, label offset 33
0051   2???           00546         GOTO    _00137_DS_
                      00547 ;;; /home/sdcc-builder/build/sdcc-build/orig/sdcc/src/pic14/gen.c:2358:resultRemat *{*
                      00548 ;;; /home/sdcc-builder/build/sdcc-build/orig/sdcc/src/pic14/gen.c:2802:genLabel *{*
                      00549 ;; ***  genLabel  2805
                      00550 ;;; /home/sdcc-builder/build/sdcc-build/orig/sdcc/src/pic14/gen.c:2358:resultRemat *{*
                      00551 ;;; /home/sdcc-builder/build/sdcc-build/orig/sdcc/src/pic14/gen.c:2358:resultRemat *{*
                      00552 ;;; /home/sdcc-builder/build/sdcc-build/orig/sdcc/src/pic14/gen.c:2358:resultRemat *{*
                      00553 ;;; /home/sdcc-builder/build/sdcc-build/orig/sdcc/src/pic14/gen.c:2108:genCall *{*
                      00554 ;; ***  genCall  2110
                      00555 ;;      2158 left AOP_LIT
                      00556 ;;; /home/sdcc-builder/build/sdcc-build/orig/sdcc/src/pic14/gen.c:1357:mov2w_op *{*
                      00557 ;; >>> /home/sdcc-builder/build/sdcc-build/orig/sdcc/src/pic14/gen.c:1375:mov2w_op
0052                  00558 _00134_DS_:
                      00559         .line   74; "PB.c"      pb_info[current_button].samples[1] = GPIO_GetPortPinState(PB_PLUS_PORT, 
                            PB_PLUS_PIN);
0052   3000           00560         MOVLW   0x00
                      00561 ;;      2158 left AOP_LIT
                      00562 ;; >>> /home/sdcc-builder/build/sdcc-build/orig/sdcc/src/pic14/gen.c:2166:genCall
                      00563 ;; ***  popRegFromIdx,1059  , rIdx=0x7f
0053   00??           00564         MOVWF   STK00
                      00565 ;;; /home/sdcc-builder/build/sdcc-build/orig/sdcc/src/pic14/gen.c:1357:mov2w_op *{*
                      00566 ;; >>> /home/sdcc-builder/build/sdcc-build/orig/sdcc/src/pic14/gen.c:1375:mov2w_op
0054   3001           00567         MOVLW   0x01
gpasm-1.5.0 #1285 (Sep 12 2016) obj\Debug\PB.   7-19-2020  03:04:20         PAGE 12


LOC    OBJECT CODE    LINE  SOURCE TEXT
  VALUE

                      00568 ;; >>> /home/sdcc-builder/build/sdcc-build/orig/sdcc/src/pic14/gen.c:2207:genCall
0055   0??? 0???      00569         PAGESEL _GPIO_GetPortPinState
                      00570 ;; >>> /home/sdcc-builder/build/sdcc-build/orig/sdcc/src/pic14/gen.c:2215:genCall
0057   2???           00571         CALL    _GPIO_GetPortPinState
                      00572 ;; >>> /home/sdcc-builder/build/sdcc-build/orig/sdcc/src/pic14/gen.c:2223:genCall
0058   0??? 0???      00573         PAGESEL $
                      00574 ;;      708 register type nRegs=1
                      00575 ;;; /home/sdcc-builder/build/sdcc-build/orig/sdcc/src/pic14/gen.c:1929:assignResultValue *{*
                      00576 ;; ***  assignResultValue  1931
                      00577 ;;      line = 1933 result -=-, size=0, left AOP_REG=r0x1050, size=1, right -=-, size=0
                      00578 ;; >>> /home/sdcc-builder/build/sdcc-build/orig/sdcc/src/pic14/gen.c:1407:movwf
                      00579 ;;      1126 rIdx = r0x1050 
005A   0??? 0???      00580         BANKSEL r0x1014
005C   00??           00581         MOVWF   r0x1014
                      00582 ;;      2238 left AOP_REG
                      00583 ;;; /home/sdcc-builder/build/sdcc-build/orig/sdcc/src/pic14/gen.c:2358:resultRemat *{*
                      00584 ;;; /home/sdcc-builder/build/sdcc-build/orig/sdcc/src/pic14/gen.c:6951:genPointerSet *{*
                      00585 ;; ***  genPointerSet  6952
                      00586 ;;; /home/sdcc-builder/build/sdcc-build/orig/sdcc/src/pic14/gen.c:6871:genNearPointerSet *{*
                      00587 ;; ***  genNearPointerSet  6872
                      00588 ;;      708 register type nRegs=2
                      00589 ;; ***  genNearPointerSet  6886
                      00590 ;;      708 register type nRegs=1
                      00591 ;;      line = 6888 result AOP_REG=r0x1052, size=2, left -=-, size=0, right AOP_REG=r0x1050, size=1
                      00592 ;;; /home/sdcc-builder/build/sdcc-build/orig/sdcc/src/pic14/gen.c:1357:mov2w_op *{*
                      00593 ;; ***  mov2w  1395  offset=0
                      00594 ;; >>> /home/sdcc-builder/build/sdcc-build/orig/sdcc/src/pic14/gen.c:1400:mov2w
                      00595 ;;      1126 rIdx = r0x1052 
005D   08??           00596         MOVF    r0x1016,W
                      00597 ;; >>> /home/sdcc-builder/build/sdcc-build/orig/sdcc/src/pic14/gen.c:5851:setup_fsr
005E   1283 1303      00598         BANKSEL FSR
0060   0084           00599         MOVWF   FSR
                      00600 ;;; /home/sdcc-builder/build/sdcc-build/orig/sdcc/src/pic14/gen.c:5802:SetIrp *{*
                      00601 ;; >>> /home/sdcc-builder/build/sdcc-build/orig/sdcc/src/pic14/gen.c:5829:SetIrp
0061   1383           00602         BCF     STATUS,7
                      00603 ;; >>> /home/sdcc-builder/build/sdcc-build/orig/sdcc/src/pic14/gen.c:5832:SetIrp
0062   0??? 0???      00604         BANKSEL r0x1017
0064   18??           00605         BTFSC   r0x1017,0
                      00606 ;; >>> /home/sdcc-builder/build/sdcc-build/orig/sdcc/src/pic14/gen.c:5833:SetIrp
0065   1783           00607         BSF     STATUS,7
                      00608 ;; >>> /home/sdcc-builder/build/sdcc-build/orig/sdcc/src/pic14/gen.c:6638:emitPtrPut
                      00609 ;;      1126 rIdx = r0x1050 
0066   08??           00610         MOVF    r0x1014,W
                      00611 ;; >>> /home/sdcc-builder/build/sdcc-build/orig/sdcc/src/pic14/gen.c:6639:emitPtrPut
0067   1283 1303      00612         BANKSEL INDF
0069   0080           00613         MOVWF   INDF
                      00614 ;; ***  genNearPointerSet  6905
                      00615 ;;; /home/sdcc-builder/build/sdcc-build/orig/sdcc/src/pic14/gen.c:2358:resultRemat *{*
                      00616 ;;; /home/sdcc-builder/build/sdcc-build/orig/sdcc/src/pic14/gen.c:2820:genGoto *{*
                      00617 ;; >>> /home/sdcc-builder/build/sdcc-build/orig/sdcc/src/pic14/gen.c:2822:genGoto
                      00618 ;; ***  popGetLabel  key=6, label offset 33
                      00619         .line   75; "PB.c"      break;
006A   2???           00620         GOTO    _00139_DS_
gpasm-1.5.0 #1285 (Sep 12 2016) obj\Debug\PB.   7-19-2020  03:04:20         PAGE 13


LOC    OBJECT CODE    LINE  SOURCE TEXT
  VALUE

                      00621 ;;; /home/sdcc-builder/build/sdcc-build/orig/sdcc/src/pic14/gen.c:2358:resultRemat *{*
                      00622 ;;; /home/sdcc-builder/build/sdcc-build/orig/sdcc/src/pic14/gen.c:2802:genLabel *{*
                      00623 ;; ***  genLabel  2805
                      00624 ;;; /home/sdcc-builder/build/sdcc-build/orig/sdcc/src/pic14/gen.c:2358:resultRemat *{*
                      00625 ;;; /home/sdcc-builder/build/sdcc-build/orig/sdcc/src/pic14/gen.c:2358:resultRemat *{*
                      00626 ;;; /home/sdcc-builder/build/sdcc-build/orig/sdcc/src/pic14/gen.c:2358:resultRemat *{*
                      00627 ;;; /home/sdcc-builder/build/sdcc-build/orig/sdcc/src/pic14/gen.c:2108:genCall *{*
                      00628 ;; ***  genCall  2110
                      00629 ;;      2158 left AOP_LIT
                      00630 ;;; /home/sdcc-builder/build/sdcc-build/orig/sdcc/src/pic14/gen.c:1357:mov2w_op *{*
                      00631 ;; >>> /home/sdcc-builder/build/sdcc-build/orig/sdcc/src/pic14/gen.c:1375:mov2w_op
006B                  00632 _00135_DS_:
                      00633         .line   77; "PB.c"      pb_info[current_button].samples[1] = GPIO_GetPortPinState(PB_MINUS_PORT,
                             PB_MINUS_PIN);
006B   3001           00634         MOVLW   0x01
                      00635 ;;      2158 left AOP_LIT
                      00636 ;; >>> /home/sdcc-builder/build/sdcc-build/orig/sdcc/src/pic14/gen.c:2166:genCall
                      00637 ;; ***  popRegFromIdx,1059  , rIdx=0x7f
006C   00??           00638         MOVWF   STK00
                      00639 ;;; /home/sdcc-builder/build/sdcc-build/orig/sdcc/src/pic14/gen.c:1357:mov2w_op *{*
                      00640 ;; >>> /home/sdcc-builder/build/sdcc-build/orig/sdcc/src/pic14/gen.c:1375:mov2w_op
006D   3001           00641         MOVLW   0x01
                      00642 ;; >>> /home/sdcc-builder/build/sdcc-build/orig/sdcc/src/pic14/gen.c:2207:genCall
006E   0??? 0???      00643         PAGESEL _GPIO_GetPortPinState
                      00644 ;; >>> /home/sdcc-builder/build/sdcc-build/orig/sdcc/src/pic14/gen.c:2215:genCall
0070   2???           00645         CALL    _GPIO_GetPortPinState
                      00646 ;; >>> /home/sdcc-builder/build/sdcc-build/orig/sdcc/src/pic14/gen.c:2223:genCall
0071   0??? 0???      00647         PAGESEL $
                      00648 ;;      708 register type nRegs=1
                      00649 ;;; /home/sdcc-builder/build/sdcc-build/orig/sdcc/src/pic14/gen.c:1929:assignResultValue *{*
                      00650 ;; ***  assignResultValue  1931
                      00651 ;;      line = 1933 result -=-, size=0, left AOP_REG=r0x1050, size=1, right -=-, size=0
                      00652 ;; >>> /home/sdcc-builder/build/sdcc-build/orig/sdcc/src/pic14/gen.c:1407:movwf
                      00653 ;;      1126 rIdx = r0x1050 
0073   0??? 0???      00654         BANKSEL r0x1014
0075   00??           00655         MOVWF   r0x1014
                      00656 ;;      2238 left AOP_REG
                      00657 ;;; /home/sdcc-builder/build/sdcc-build/orig/sdcc/src/pic14/gen.c:2358:resultRemat *{*
                      00658 ;;; /home/sdcc-builder/build/sdcc-build/orig/sdcc/src/pic14/gen.c:6951:genPointerSet *{*
                      00659 ;; ***  genPointerSet  6952
                      00660 ;;; /home/sdcc-builder/build/sdcc-build/orig/sdcc/src/pic14/gen.c:6871:genNearPointerSet *{*
                      00661 ;; ***  genNearPointerSet  6872
                      00662 ;;      708 register type nRegs=2
                      00663 ;; ***  genNearPointerSet  6886
                      00664 ;;      708 register type nRegs=1
                      00665 ;;      line = 6888 result AOP_REG=r0x1052, size=2, left -=-, size=0, right AOP_REG=r0x1050, size=1
                      00666 ;;; /home/sdcc-builder/build/sdcc-build/orig/sdcc/src/pic14/gen.c:1357:mov2w_op *{*
                      00667 ;; ***  mov2w  1395  offset=0
                      00668 ;; >>> /home/sdcc-builder/build/sdcc-build/orig/sdcc/src/pic14/gen.c:1400:mov2w
                      00669 ;;      1126 rIdx = r0x1052 
0076   08??           00670         MOVF    r0x1016,W
                      00671 ;; >>> /home/sdcc-builder/build/sdcc-build/orig/sdcc/src/pic14/gen.c:5851:setup_fsr
0077   1283 1303      00672         BANKSEL FSR
gpasm-1.5.0 #1285 (Sep 12 2016) obj\Debug\PB.   7-19-2020  03:04:20         PAGE 14


LOC    OBJECT CODE    LINE  SOURCE TEXT
  VALUE

0079   0084           00673         MOVWF   FSR
                      00674 ;;; /home/sdcc-builder/build/sdcc-build/orig/sdcc/src/pic14/gen.c:5802:SetIrp *{*
                      00675 ;; >>> /home/sdcc-builder/build/sdcc-build/orig/sdcc/src/pic14/gen.c:5829:SetIrp
007A   1383           00676         BCF     STATUS,7
                      00677 ;; >>> /home/sdcc-builder/build/sdcc-build/orig/sdcc/src/pic14/gen.c:5832:SetIrp
007B   0??? 0???      00678         BANKSEL r0x1017
007D   18??           00679         BTFSC   r0x1017,0
                      00680 ;; >>> /home/sdcc-builder/build/sdcc-build/orig/sdcc/src/pic14/gen.c:5833:SetIrp
007E   1783           00681         BSF     STATUS,7
                      00682 ;; >>> /home/sdcc-builder/build/sdcc-build/orig/sdcc/src/pic14/gen.c:6638:emitPtrPut
                      00683 ;;      1126 rIdx = r0x1050 
007F   08??           00684         MOVF    r0x1014,W
                      00685 ;; >>> /home/sdcc-builder/build/sdcc-build/orig/sdcc/src/pic14/gen.c:6639:emitPtrPut
0080   1283 1303      00686         BANKSEL INDF
0082   0080           00687         MOVWF   INDF
                      00688 ;; ***  genNearPointerSet  6905
                      00689 ;;; /home/sdcc-builder/build/sdcc-build/orig/sdcc/src/pic14/gen.c:2358:resultRemat *{*
                      00690 ;;; /home/sdcc-builder/build/sdcc-build/orig/sdcc/src/pic14/gen.c:2820:genGoto *{*
                      00691 ;; >>> /home/sdcc-builder/build/sdcc-build/orig/sdcc/src/pic14/gen.c:2822:genGoto
                      00692 ;; ***  popGetLabel  key=6, label offset 33
                      00693         .line   78; "PB.c"      break;
0083   2???           00694         GOTO    _00139_DS_
                      00695 ;;; /home/sdcc-builder/build/sdcc-build/orig/sdcc/src/pic14/gen.c:2358:resultRemat *{*
                      00696 ;;; /home/sdcc-builder/build/sdcc-build/orig/sdcc/src/pic14/gen.c:2802:genLabel *{*
                      00697 ;; ***  genLabel  2805
                      00698 ;;; /home/sdcc-builder/build/sdcc-build/orig/sdcc/src/pic14/gen.c:2358:resultRemat *{*
                      00699 ;;; /home/sdcc-builder/build/sdcc-build/orig/sdcc/src/pic14/gen.c:2358:resultRemat *{*
                      00700 ;;; /home/sdcc-builder/build/sdcc-build/orig/sdcc/src/pic14/gen.c:2358:resultRemat *{*
                      00701 ;;; /home/sdcc-builder/build/sdcc-build/orig/sdcc/src/pic14/gen.c:2108:genCall *{*
                      00702 ;; ***  genCall  2110
                      00703 ;;      2158 left AOP_LIT
                      00704 ;;; /home/sdcc-builder/build/sdcc-build/orig/sdcc/src/pic14/gen.c:1357:mov2w_op *{*
                      00705 ;; >>> /home/sdcc-builder/build/sdcc-build/orig/sdcc/src/pic14/gen.c:1375:mov2w_op
0084                  00706 _00136_DS_:
                      00707         .line   80; "PB.c"      pb_info[current_button].samples[1] = GPIO_GetPortPinState(PB_ON_OFF_PORT
                            , PB_ON_OFF_PIN);
0084   3002           00708         MOVLW   0x02
                      00709 ;;      2158 left AOP_LIT
                      00710 ;; >>> /home/sdcc-builder/build/sdcc-build/orig/sdcc/src/pic14/gen.c:2166:genCall
                      00711 ;; ***  popRegFromIdx,1059  , rIdx=0x7f
0085   00??           00712         MOVWF   STK00
                      00713 ;;; /home/sdcc-builder/build/sdcc-build/orig/sdcc/src/pic14/gen.c:1357:mov2w_op *{*
                      00714 ;; >>> /home/sdcc-builder/build/sdcc-build/orig/sdcc/src/pic14/gen.c:1375:mov2w_op
0086   3001           00715         MOVLW   0x01
                      00716 ;; >>> /home/sdcc-builder/build/sdcc-build/orig/sdcc/src/pic14/gen.c:2207:genCall
0087   0??? 0???      00717         PAGESEL _GPIO_GetPortPinState
                      00718 ;; >>> /home/sdcc-builder/build/sdcc-build/orig/sdcc/src/pic14/gen.c:2215:genCall
0089   2???           00719         CALL    _GPIO_GetPortPinState
                      00720 ;; >>> /home/sdcc-builder/build/sdcc-build/orig/sdcc/src/pic14/gen.c:2223:genCall
008A   0??? 0???      00721         PAGESEL $
                      00722 ;;      708 register type nRegs=1
                      00723 ;;; /home/sdcc-builder/build/sdcc-build/orig/sdcc/src/pic14/gen.c:1929:assignResultValue *{*
                      00724 ;; ***  assignResultValue  1931
gpasm-1.5.0 #1285 (Sep 12 2016) obj\Debug\PB.   7-19-2020  03:04:20         PAGE 15


LOC    OBJECT CODE    LINE  SOURCE TEXT
  VALUE

                      00725 ;;      line = 1933 result -=-, size=0, left AOP_REG=r0x1050, size=1, right -=-, size=0
                      00726 ;; >>> /home/sdcc-builder/build/sdcc-build/orig/sdcc/src/pic14/gen.c:1407:movwf
                      00727 ;;      1126 rIdx = r0x1050 
008C   0??? 0???      00728         BANKSEL r0x1014
008E   00??           00729         MOVWF   r0x1014
                      00730 ;;      2238 left AOP_REG
                      00731 ;;; /home/sdcc-builder/build/sdcc-build/orig/sdcc/src/pic14/gen.c:2358:resultRemat *{*
                      00732 ;;; /home/sdcc-builder/build/sdcc-build/orig/sdcc/src/pic14/gen.c:6951:genPointerSet *{*
                      00733 ;; ***  genPointerSet  6952
                      00734 ;;; /home/sdcc-builder/build/sdcc-build/orig/sdcc/src/pic14/gen.c:6871:genNearPointerSet *{*
                      00735 ;; ***  genNearPointerSet  6872
                      00736 ;;      708 register type nRegs=2
                      00737 ;; ***  genNearPointerSet  6886
                      00738 ;;      708 register type nRegs=1
                      00739 ;;      line = 6888 result AOP_REG=r0x1052, size=2, left -=-, size=0, right AOP_REG=r0x1050, size=1
                      00740 ;;; /home/sdcc-builder/build/sdcc-build/orig/sdcc/src/pic14/gen.c:1357:mov2w_op *{*
                      00741 ;; ***  mov2w  1395  offset=0
                      00742 ;; >>> /home/sdcc-builder/build/sdcc-build/orig/sdcc/src/pic14/gen.c:1400:mov2w
                      00743 ;;      1126 rIdx = r0x1052 
008F   08??           00744         MOVF    r0x1016,W
                      00745 ;; >>> /home/sdcc-builder/build/sdcc-build/orig/sdcc/src/pic14/gen.c:5851:setup_fsr
0090   1283 1303      00746         BANKSEL FSR
0092   0084           00747         MOVWF   FSR
                      00748 ;;; /home/sdcc-builder/build/sdcc-build/orig/sdcc/src/pic14/gen.c:5802:SetIrp *{*
                      00749 ;; >>> /home/sdcc-builder/build/sdcc-build/orig/sdcc/src/pic14/gen.c:5829:SetIrp
0093   1383           00750         BCF     STATUS,7
                      00751 ;; >>> /home/sdcc-builder/build/sdcc-build/orig/sdcc/src/pic14/gen.c:5832:SetIrp
0094   0??? 0???      00752         BANKSEL r0x1017
0096   18??           00753         BTFSC   r0x1017,0
                      00754 ;; >>> /home/sdcc-builder/build/sdcc-build/orig/sdcc/src/pic14/gen.c:5833:SetIrp
0097   1783           00755         BSF     STATUS,7
                      00756 ;; >>> /home/sdcc-builder/build/sdcc-build/orig/sdcc/src/pic14/gen.c:6638:emitPtrPut
                      00757 ;;      1126 rIdx = r0x1050 
0098   08??           00758         MOVF    r0x1014,W
                      00759 ;; >>> /home/sdcc-builder/build/sdcc-build/orig/sdcc/src/pic14/gen.c:6639:emitPtrPut
0099   1283 1303      00760         BANKSEL INDF
009B   0080           00761         MOVWF   INDF
                      00762 ;; ***  genNearPointerSet  6905
                      00763 ;;; /home/sdcc-builder/build/sdcc-build/orig/sdcc/src/pic14/gen.c:2358:resultRemat *{*
                      00764 ;;; /home/sdcc-builder/build/sdcc-build/orig/sdcc/src/pic14/gen.c:2820:genGoto *{*
                      00765 ;; >>> /home/sdcc-builder/build/sdcc-build/orig/sdcc/src/pic14/gen.c:2822:genGoto
                      00766 ;; ***  popGetLabel  key=6, label offset 33
                      00767         .line   81; "PB.c"      break;
009C   2???           00768         GOTO    _00139_DS_
                      00769 ;;; /home/sdcc-builder/build/sdcc-build/orig/sdcc/src/pic14/gen.c:2358:resultRemat *{*
                      00770 ;;; /home/sdcc-builder/build/sdcc-build/orig/sdcc/src/pic14/gen.c:2802:genLabel *{*
                      00771 ;; ***  genLabel  2805
                      00772 ;;; /home/sdcc-builder/build/sdcc-build/orig/sdcc/src/pic14/gen.c:2358:resultRemat *{*
                      00773 ;;; /home/sdcc-builder/build/sdcc-build/orig/sdcc/src/pic14/gen.c:2358:resultRemat *{*
                      00774 ;;; /home/sdcc-builder/build/sdcc-build/orig/sdcc/src/pic14/gen.c:2358:resultRemat *{*
                      00775 ;;; /home/sdcc-builder/build/sdcc-build/orig/sdcc/src/pic14/gen.c:2108:genCall *{*
                      00776 ;; ***  genCall  2110
                      00777 ;;      2158 left AOP_LIT
gpasm-1.5.0 #1285 (Sep 12 2016) obj\Debug\PB.   7-19-2020  03:04:20         PAGE 16


LOC    OBJECT CODE    LINE  SOURCE TEXT
  VALUE

                      00778 ;;; /home/sdcc-builder/build/sdcc-build/orig/sdcc/src/pic14/gen.c:1357:mov2w_op *{*
                      00779 ;; >>> /home/sdcc-builder/build/sdcc-build/orig/sdcc/src/pic14/gen.c:1375:mov2w_op
009D                  00780 _00137_DS_:
                      00781         .line   83; "PB.c"      pb_info[current_button].samples[1] = GPIO_GetPortPinState(PORT_B, 3);
009D   3003           00782         MOVLW   0x03
                      00783 ;;      2158 left AOP_LIT
                      00784 ;; >>> /home/sdcc-builder/build/sdcc-build/orig/sdcc/src/pic14/gen.c:2166:genCall
                      00785 ;; ***  popRegFromIdx,1059  , rIdx=0x7f
009E   00??           00786         MOVWF   STK00
                      00787 ;;; /home/sdcc-builder/build/sdcc-build/orig/sdcc/src/pic14/gen.c:1357:mov2w_op *{*
                      00788 ;; >>> /home/sdcc-builder/build/sdcc-build/orig/sdcc/src/pic14/gen.c:1375:mov2w_op
009F   3001           00789         MOVLW   0x01
                      00790 ;; >>> /home/sdcc-builder/build/sdcc-build/orig/sdcc/src/pic14/gen.c:2207:genCall
00A0   0??? 0???      00791         PAGESEL _GPIO_GetPortPinState
                      00792 ;; >>> /home/sdcc-builder/build/sdcc-build/orig/sdcc/src/pic14/gen.c:2215:genCall
00A2   2???           00793         CALL    _GPIO_GetPortPinState
                      00794 ;; >>> /home/sdcc-builder/build/sdcc-build/orig/sdcc/src/pic14/gen.c:2223:genCall
00A3   0??? 0???      00795         PAGESEL $
                      00796 ;;      708 register type nRegs=1
                      00797 ;;; /home/sdcc-builder/build/sdcc-build/orig/sdcc/src/pic14/gen.c:1929:assignResultValue *{*
                      00798 ;; ***  assignResultValue  1931
                      00799 ;;      line = 1933 result -=-, size=0, left AOP_REG=r0x1050, size=1, right -=-, size=0
                      00800 ;; >>> /home/sdcc-builder/build/sdcc-build/orig/sdcc/src/pic14/gen.c:1407:movwf
                      00801 ;;      1126 rIdx = r0x1050 
00A5   0??? 0???      00802         BANKSEL r0x1014
00A7   00??           00803         MOVWF   r0x1014
                      00804 ;;      2238 left AOP_REG
                      00805 ;;; /home/sdcc-builder/build/sdcc-build/orig/sdcc/src/pic14/gen.c:2358:resultRemat *{*
                      00806 ;;; /home/sdcc-builder/build/sdcc-build/orig/sdcc/src/pic14/gen.c:6951:genPointerSet *{*
                      00807 ;; ***  genPointerSet  6952
                      00808 ;;; /home/sdcc-builder/build/sdcc-build/orig/sdcc/src/pic14/gen.c:6871:genNearPointerSet *{*
                      00809 ;; ***  genNearPointerSet  6872
                      00810 ;;      708 register type nRegs=2
                      00811 ;; ***  genNearPointerSet  6886
                      00812 ;;      708 register type nRegs=1
                      00813 ;;      line = 6888 result AOP_REG=r0x1052, size=2, left -=-, size=0, right AOP_REG=r0x1050, size=1
                      00814 ;;; /home/sdcc-builder/build/sdcc-build/orig/sdcc/src/pic14/gen.c:1357:mov2w_op *{*
                      00815 ;; ***  mov2w  1395  offset=0
                      00816 ;; >>> /home/sdcc-builder/build/sdcc-build/orig/sdcc/src/pic14/gen.c:1400:mov2w
                      00817 ;;      1126 rIdx = r0x1052 
00A8   08??           00818         MOVF    r0x1016,W
                      00819 ;; >>> /home/sdcc-builder/build/sdcc-build/orig/sdcc/src/pic14/gen.c:5851:setup_fsr
00A9   1283 1303      00820         BANKSEL FSR
00AB   0084           00821         MOVWF   FSR
                      00822 ;;; /home/sdcc-builder/build/sdcc-build/orig/sdcc/src/pic14/gen.c:5802:SetIrp *{*
                      00823 ;; >>> /home/sdcc-builder/build/sdcc-build/orig/sdcc/src/pic14/gen.c:5829:SetIrp
00AC   1383           00824         BCF     STATUS,7
                      00825 ;; >>> /home/sdcc-builder/build/sdcc-build/orig/sdcc/src/pic14/gen.c:5832:SetIrp
00AD   0??? 0???      00826         BANKSEL r0x1017
00AF   18??           00827         BTFSC   r0x1017,0
                      00828 ;; >>> /home/sdcc-builder/build/sdcc-build/orig/sdcc/src/pic14/gen.c:5833:SetIrp
00B0   1783           00829         BSF     STATUS,7
                      00830 ;; >>> /home/sdcc-builder/build/sdcc-build/orig/sdcc/src/pic14/gen.c:6638:emitPtrPut
gpasm-1.5.0 #1285 (Sep 12 2016) obj\Debug\PB.   7-19-2020  03:04:20         PAGE 17


LOC    OBJECT CODE    LINE  SOURCE TEXT
  VALUE

                      00831 ;;      1126 rIdx = r0x1050 
00B1   08??           00832         MOVF    r0x1014,W
                      00833 ;; >>> /home/sdcc-builder/build/sdcc-build/orig/sdcc/src/pic14/gen.c:6639:emitPtrPut
00B2   1283 1303      00834         BANKSEL INDF
00B4   0080           00835         MOVWF   INDF
                      00836 ;; ***  genNearPointerSet  6905
                      00837 ;;; /home/sdcc-builder/build/sdcc-build/orig/sdcc/src/pic14/gen.c:2358:resultRemat *{*
                      00838 ;;; /home/sdcc-builder/build/sdcc-build/orig/sdcc/src/pic14/gen.c:2802:genLabel *{*
                      00839 ;; ***  genLabel  2805
                      00840 ;;; /home/sdcc-builder/build/sdcc-build/orig/sdcc/src/pic14/gen.c:2358:resultRemat *{*
                      00841 ;; ***  genPlus  707
                      00842 ;;; /home/sdcc-builder/build/sdcc-build/orig/sdcc/src/pic14/genarith.c:708:genPlus *{*
                      00843 ;;      627
                      00844 ;;      aopForRemat 406
                      00845 ;;      432: rname _pb_info, val 0, const = 0
                      00846 ;;      708 register type nRegs=2
                      00847 ;;      708 register type nRegs=2
                      00848 ;;      837: aopGet AOP_PCODE type PO_IMMEDIATE
                      00849 ;;      _pb_info
                      00850 ;;      line = 714 result AOP_REG=r0x1050, size=2, left AOP_PCODE=_pb_info, size=2, right AOP_REG=r0x104
                            C, size=2
                      00851 ;;; /home/sdcc-builder/build/sdcc-build/orig/sdcc/src/pic14/genarith.c:159:genPlusIncr *{*
                      00852 ;; ***  genPlusIncr  161
                      00853 ;;      result AOP_REG, left AOP_PCODE, right AOP_REG
                      00854 ;; ***  genPlus  814
                      00855 ;;      837: aopGet AOP_PCODE type PO_IMMEDIATE
                      00856 ;;      _pb_info
                      00857 ;; >>> /home/sdcc-builder/build/sdcc-build/orig/sdcc/src/pic14/genarith.c:823:genPlus
                      00858 ;;      1126 rIdx = r0x104C 
00B5                  00859 _00139_DS_:
                      00860         .line   91; "PB.c"      switch(pb_info[current_button].state)
00B5   0??? 0???      00861         BANKSEL r0x1010
00B7   08??           00862         MOVF    r0x1010,W
                      00863 ;; >>> /home/sdcc-builder/build/sdcc-build/orig/sdcc/src/pic14/genarith.c:832:genPlus
00B8   3E??           00864         ADDLW   (_pb_info + 0)
                      00865 ;; >>> /home/sdcc-builder/build/sdcc-build/orig/sdcc/src/pic14/genarith.c:833:genPlus
                      00866 ;;      1126 rIdx = r0x1050 
00B9   00??           00867         MOVWF   r0x1014
                      00868 ;; >>> /home/sdcc-builder/build/sdcc-build/orig/sdcc/src/pic14/genarith.c:880:genPlus
00BA   30??           00869         MOVLW   high (_pb_info + 0)
                      00870 ;; >>> /home/sdcc-builder/build/sdcc-build/orig/sdcc/src/pic14/genarith.c:881:genPlus
                      00871 ;;      1126 rIdx = r0x1051 
00BB   00??           00872         MOVWF   r0x1015
                      00873 ;; >>> /home/sdcc-builder/build/sdcc-build/orig/sdcc/src/pic14/genarith.c:883:genPlus
                      00874 ;;      1126 rIdx = r0x104D 
00BC   08??           00875         MOVF    r0x1011,W
                      00876 ;; >>> /home/sdcc-builder/build/sdcc-build/orig/sdcc/src/pic14/genarith.c:884:genPlus
00BD   1803           00877         BTFSC   STATUS,0
                      00878 ;; >>> /home/sdcc-builder/build/sdcc-build/orig/sdcc/src/pic14/genarith.c:885:genPlus
                      00879 ;;      1126 rIdx = r0x104D 
00BE   0F??           00880         INCFSZ  r0x1011,W
                      00881 ;; >>> /home/sdcc-builder/build/sdcc-build/orig/sdcc/src/pic14/genarith.c:886:genPlus
                      00882 ;;      1126 rIdx = r0x1051 
gpasm-1.5.0 #1285 (Sep 12 2016) obj\Debug\PB.   7-19-2020  03:04:20         PAGE 18


LOC    OBJECT CODE    LINE  SOURCE TEXT
  VALUE

00BF   07??           00883         ADDWF   r0x1015,F
                      00884 ;;; /home/sdcc-builder/build/sdcc-build/orig/sdcc/src/pic14/gen.c:2358:resultRemat *{*
                      00885 ;; ***  genPlus  707
                      00886 ;;; /home/sdcc-builder/build/sdcc-build/orig/sdcc/src/pic14/genarith.c:708:genPlus *{*
                      00887 ;;      708 register type nRegs=2
                      00888 ;;      708 register type nRegs=2
                      00889 ;;      line = 714 result AOP_REG=r0x1052, size=2, left AOP_REG=r0x1050, size=2, right AOP_LIT=0x02, siz
                            e=1
                      00890 ;;; /home/sdcc-builder/build/sdcc-build/orig/sdcc/src/pic14/genarith.c:159:genPlusIncr *{*
                      00891 ;; ***  genPlusIncr  161
                      00892 ;;      result AOP_REG, left AOP_REG, right AOP_LIT
                      00893 ;;      genPlusIncr  173
                      00894 ;;      genPlusIncr  197
                      00895 ;;      adding lit to something. size 2
                      00896 ;;; /home/sdcc-builder/build/sdcc-build/orig/sdcc/src/pic14/genarith.c:286:genAddLit *{*
                      00897 ;; ***  genAddLit  287
                      00898 ;;  left and result aren't same genAddLit  537
                      00899 ;; >>> /home/sdcc-builder/build/sdcc-build/orig/sdcc/src/pic14/genarith.c:601:genAddLit
00C0   3002           00900         MOVLW   0x02
                      00901 ;; >>> /home/sdcc-builder/build/sdcc-build/orig/sdcc/src/pic14/genarith.c:602:genAddLit
                      00902 ;;      1126 rIdx = r0x1050 
00C1   07??           00903         ADDWF   r0x1014,W
                      00904 ;;; /home/sdcc-builder/build/sdcc-build/orig/sdcc/src/pic14/genarith.c:270:emitMOVWF *{*
                      00905 ;; >>> /home/sdcc-builder/build/sdcc-build/orig/sdcc/src/pic14/genarith.c:274:emitMOVWF
                      00906 ;;      1126 rIdx = r0x1052 
00C2   00??           00907         MOVWF   r0x1016
                      00908 ;; >>> /home/sdcc-builder/build/sdcc-build/orig/sdcc/src/pic14/genarith.c:677:genAddLit
                      00909 ;;      1126 rIdx = r0x1053 
00C3   01??           00910         CLRF    r0x1017
                      00911 ;; >>> /home/sdcc-builder/build/sdcc-build/orig/sdcc/src/pic14/genarith.c:678:genAddLit
                      00912 ;;      1126 rIdx = r0x1053 
00C4   0D??           00913         RLF     r0x1017,F
                      00914 ;; >>> /home/sdcc-builder/build/sdcc-build/orig/sdcc/src/pic14/genarith.c:679:genAddLit
                      00915 ;;      1126 rIdx = r0x1051 
00C5   08??           00916         MOVF    r0x1015,W
                      00917 ;; >>> /home/sdcc-builder/build/sdcc-build/orig/sdcc/src/pic14/genarith.c:680:genAddLit
                      00918 ;;      1126 rIdx = r0x1053 
00C6   07??           00919         ADDWF   r0x1017,F
                      00920 ;; ***  addSign  1087
                      00921 ;;; /home/sdcc-builder/build/sdcc-build/orig/sdcc/src/pic14/genarith.c:1088:addSign *{*
                      00922 ;;; /home/sdcc-builder/build/sdcc-build/orig/sdcc/src/pic14/gen.c:2358:resultRemat *{*
                      00923 ;;; /home/sdcc-builder/build/sdcc-build/orig/sdcc/src/pic14/gen.c:6399:genPointerGet *{*
                      00924 ;; ***  genPointerGet  6400
                      00925 ;;; /home/sdcc-builder/build/sdcc-build/orig/sdcc/src/pic14/gen.c:6285:genNearPointerGet *{*
                      00926 ;; ***  genNearPointerGet  6286
                      00927 ;;      708 register type nRegs=2
                      00928 ;; ***  genNearPointerGet  6302
                      00929 ;;      708 register type nRegs=1
                      00930 ;;; /home/sdcc-builder/build/sdcc-build/orig/sdcc/src/pic14/gen.c:1357:mov2w_op *{*
                      00931 ;; ***  mov2w  1395  offset=0
                      00932 ;; >>> /home/sdcc-builder/build/sdcc-build/orig/sdcc/src/pic14/gen.c:1400:mov2w
                      00933 ;;      1126 rIdx = r0x1052 
00C7   08??           00934         MOVF    r0x1016,W
gpasm-1.5.0 #1285 (Sep 12 2016) obj\Debug\PB.   7-19-2020  03:04:20         PAGE 19


LOC    OBJECT CODE    LINE  SOURCE TEXT
  VALUE

                      00935 ;; >>> /home/sdcc-builder/build/sdcc-build/orig/sdcc/src/pic14/gen.c:5851:setup_fsr
00C8   1283 1303      00936         BANKSEL FSR
00CA   0084           00937         MOVWF   FSR
                      00938 ;;; /home/sdcc-builder/build/sdcc-build/orig/sdcc/src/pic14/gen.c:5802:SetIrp *{*
                      00939 ;; >>> /home/sdcc-builder/build/sdcc-build/orig/sdcc/src/pic14/gen.c:5829:SetIrp
00CB   1383           00940         BCF     STATUS,7
                      00941 ;; >>> /home/sdcc-builder/build/sdcc-build/orig/sdcc/src/pic14/gen.c:5832:SetIrp
00CC   0??? 0???      00942         BANKSEL r0x1017
00CE   18??           00943         BTFSC   r0x1017,0
                      00944 ;; >>> /home/sdcc-builder/build/sdcc-build/orig/sdcc/src/pic14/gen.c:5833:SetIrp
00CF   1783           00945         BSF     STATUS,7
                      00946 ;; >>> /home/sdcc-builder/build/sdcc-build/orig/sdcc/src/pic14/gen.c:6060:emitPtrGet
00D0   1283 1303      00947         BANKSEL INDF
00D2   0800           00948         MOVF    INDF,W
                      00949 ;; >>> /home/sdcc-builder/build/sdcc-build/orig/sdcc/src/pic14/gen.c:1407:movwf
                      00950 ;;      1126 rIdx = r0x1054 
00D3   0??? 0???      00951         BANKSEL r0x1018
00D5   00??           00952         MOVWF   r0x1018
                      00953 ;;; /home/sdcc-builder/build/sdcc-build/orig/sdcc/src/pic14/gen.c:2358:resultRemat *{*
                      00954 ;;; /home/sdcc-builder/build/sdcc-build/orig/sdcc/src/pic14/gen.c:3616:genCmpGt *{*
                      00955 ;; ***  genCmpGt  3617
                      00956 ;;      708 register type nRegs=1
                      00957 ;;; /home/sdcc-builder/build/sdcc-build/orig/sdcc/src/pic14/gen.c:3354:genCmp *{*
                      00958 ;;swapping arguments (AOP_TYPEs 1/2)
                      00959 ;;unsigned compare: left >= lit(0x4=4), size=1
                      00960 ;; >>> /home/sdcc-builder/build/sdcc-build/orig/sdcc/src/pic14/gen.c:3325:pic14_mov2w_regOrLit
00D6   3004           00961         MOVLW   0x04
                      00962 ;; >>> /home/sdcc-builder/build/sdcc-build/orig/sdcc/src/pic14/gen.c:3492:genCmp
                      00963 ;;      1126 rIdx = r0x1054 
00D7   02??           00964         SUBWF   r0x1018,W
                      00965 ;;; /home/sdcc-builder/build/sdcc-build/orig/sdcc/src/pic14/gen.c:3297:genSkipc *{*
                      00966 ;; >>> /home/sdcc-builder/build/sdcc-build/orig/sdcc/src/pic14/gen.c:3302:genSkipc
00D8   1803           00967         BTFSC   STATUS,0
                      00968 ;; >>> /home/sdcc-builder/build/sdcc-build/orig/sdcc/src/pic14/gen.c:3306:genSkipc
                      00969 ;; ***  popGetLabel  key=25, label offset 33
00D9   2???           00970         GOTO    _00158_DS_
                      00971 ;;genSkipc:3307: created from rifx:00000000047A57B0
                      00972 ;;; /home/sdcc-builder/build/sdcc-build/orig/sdcc/src/pic14/gen.c:2358:resultRemat *{*
                      00973 ;;; /home/sdcc-builder/build/sdcc-build/orig/sdcc/src/pic14/gen.c:2358:resultRemat *{*
                      00974 ;;; /home/sdcc-builder/build/sdcc-build/orig/sdcc/src/pic14/gen.c:7337:genJumpTab *{*
                      00975 ;; ***  genJumpTab  7338
                      00976 ;;      708 register type nRegs=1
                      00977 ;; >>> /home/sdcc-builder/build/sdcc-build/orig/sdcc/src/pic14/gen.c:7353:genJumpTab
                      00978 ;; ***  popGetLabel  key=68, label offset 33
00DA   30??           00979         MOVLW   HIGH(_00201_DS_)
                      00980 ;; >>> /home/sdcc-builder/build/sdcc-build/orig/sdcc/src/pic14/gen.c:7354:genJumpTab
00DB   1283 1303      00981         BANKSEL PCLATH
00DD   008A           00982         MOVWF   PCLATH
                      00983 ;; >>> /home/sdcc-builder/build/sdcc-build/orig/sdcc/src/pic14/gen.c:7355:genJumpTab
                      00984 ;; ***  popGetLabel  key=68, label offset 33
00DE   30??           00985         MOVLW   _00201_DS_
                      00986 ;; >>> /home/sdcc-builder/build/sdcc-build/orig/sdcc/src/pic14/gen.c:7356:genJumpTab
                      00987 ;;      1126 rIdx = r0x1054 
gpasm-1.5.0 #1285 (Sep 12 2016) obj\Debug\PB.   7-19-2020  03:04:20         PAGE 20


LOC    OBJECT CODE    LINE  SOURCE TEXT
  VALUE

00DF   0??? 0???      00988         BANKSEL r0x1018
00E1   07??           00989         ADDWF   r0x1018,W
                      00990 ;; >>> /home/sdcc-builder/build/sdcc-build/orig/sdcc/src/pic14/gen.c:7357:genJumpTab
00E2   1C03           00991         BTFSS   STATUS,0
00E3   2???           00992         GOTO    _00002_DS_
                      00993 ;; >>> /home/sdcc-builder/build/sdcc-build/orig/sdcc/src/pic14/gen.c:7358:genJumpTab
00E4   1283 1303      00994         BANKSEL PCLATH
00E6   0A8A           00995         INCF    PCLATH,F
                      00996 ;; >>> /home/sdcc-builder/build/sdcc-build/orig/sdcc/src/pic14/gen.c:7359:genJumpTab
00E7                  00997 _00002_DS_:
00E7   0082           00998         MOVWF   PCL
                      00999 ;; >>> /home/sdcc-builder/build/sdcc-build/orig/sdcc/src/pic14/gen.c:7368:genJumpTab
                      01000 ;; ***  popGetLabel  key=7, label offset 33
00E8                  01001 _00201_DS_:
00E8   2???           01002         GOTO    _00140_DS_
                      01003 ;; >>> /home/sdcc-builder/build/sdcc-build/orig/sdcc/src/pic14/gen.c:7368:genJumpTab
                      01004 ;; ***  popGetLabel  key=11, label offset 33
00E9   2???           01005         GOTO    _00144_DS_
                      01006 ;; >>> /home/sdcc-builder/build/sdcc-build/orig/sdcc/src/pic14/gen.c:7368:genJumpTab
                      01007 ;; ***  popGetLabel  key=14, label offset 33
00EA   2???           01008         GOTO    _00147_DS_
                      01009 ;; >>> /home/sdcc-builder/build/sdcc-build/orig/sdcc/src/pic14/gen.c:7368:genJumpTab
                      01010 ;; ***  popGetLabel  key=18, label offset 33
00EB   2???           01011         GOTO    _00151_DS_
                      01012 ;;; /home/sdcc-builder/build/sdcc-build/orig/sdcc/src/pic14/gen.c:2358:resultRemat *{*
                      01013 ;;; /home/sdcc-builder/build/sdcc-build/orig/sdcc/src/pic14/gen.c:2802:genLabel *{*
                      01014 ;; ***  genLabel  2805
                      01015 ;;; /home/sdcc-builder/build/sdcc-build/orig/sdcc/src/pic14/gen.c:2358:resultRemat *{*
                      01016 ;;; /home/sdcc-builder/build/sdcc-build/orig/sdcc/src/pic14/gen.c:6399:genPointerGet *{*
                      01017 ;; ***  genPointerGet  6400
                      01018 ;;; /home/sdcc-builder/build/sdcc-build/orig/sdcc/src/pic14/gen.c:6285:genNearPointerGet *{*
                      01019 ;; ***  genNearPointerGet  6286
                      01020 ;;      708 register type nRegs=2
                      01021 ;; ***  genNearPointerGet  6302
                      01022 ;;      708 register type nRegs=1
                      01023 ;;; /home/sdcc-builder/build/sdcc-build/orig/sdcc/src/pic14/gen.c:1357:mov2w_op *{*
                      01024 ;; ***  mov2w  1395  offset=0
                      01025 ;; >>> /home/sdcc-builder/build/sdcc-build/orig/sdcc/src/pic14/gen.c:1400:mov2w
                      01026 ;;      1126 rIdx = r0x1050 
00EC                  01027 _00140_DS_:
                      01028         .line   94; "PB.c"      if((pb_info[current_button].samples[0] == PB_PRESSED_VOLTAGE) &&
00EC   0??? 0???      01029         BANKSEL r0x1014
00EE   08??           01030         MOVF    r0x1014,W
                      01031 ;; >>> /home/sdcc-builder/build/sdcc-build/orig/sdcc/src/pic14/gen.c:5851:setup_fsr
00EF   1283 1303      01032         BANKSEL FSR
00F1   0084           01033         MOVWF   FSR
                      01034 ;;; /home/sdcc-builder/build/sdcc-build/orig/sdcc/src/pic14/gen.c:5802:SetIrp *{*
                      01035 ;; >>> /home/sdcc-builder/build/sdcc-build/orig/sdcc/src/pic14/gen.c:5829:SetIrp
00F2   1383           01036         BCF     STATUS,7
                      01037 ;; >>> /home/sdcc-builder/build/sdcc-build/orig/sdcc/src/pic14/gen.c:5832:SetIrp
00F3   0??? 0???      01038         BANKSEL r0x1015
00F5   18??           01039         BTFSC   r0x1015,0
                      01040 ;; >>> /home/sdcc-builder/build/sdcc-build/orig/sdcc/src/pic14/gen.c:5833:SetIrp
gpasm-1.5.0 #1285 (Sep 12 2016) obj\Debug\PB.   7-19-2020  03:04:20         PAGE 21


LOC    OBJECT CODE    LINE  SOURCE TEXT
  VALUE

00F6   1783           01041         BSF     STATUS,7
                      01042 ;; >>> /home/sdcc-builder/build/sdcc-build/orig/sdcc/src/pic14/gen.c:6060:emitPtrGet
00F7   1283 1303      01043         BANKSEL INDF
00F9   0800           01044         MOVF    INDF,W
                      01045 ;; >>> /home/sdcc-builder/build/sdcc-build/orig/sdcc/src/pic14/gen.c:1407:movwf
                      01046 ;;      1126 rIdx = r0x1054 
00FA   0??? 0???      01047         BANKSEL r0x1018
00FC   00??           01048         MOVWF   r0x1018
                      01049 ;;; /home/sdcc-builder/build/sdcc-build/orig/sdcc/src/pic14/gen.c:2358:resultRemat *{*
                      01050 ;;; /home/sdcc-builder/build/sdcc-build/orig/sdcc/src/pic14/gen.c:7024:genIfx *{*
                      01051 ;; ***  genIfx  7025
                      01052 ;;      708 register type nRegs=1
                      01053 ;; ***  pic14_toBoolean  1515
                      01054 ;; ***  mov2w  1395  offset=0
                      01055 ;; >>> /home/sdcc-builder/build/sdcc-build/orig/sdcc/src/pic14/gen.c:1400:mov2w
                      01056 ;;      1126 rIdx = r0x1054 
00FD   08??           01057         MOVF    r0x1018,W
                      01058 ;; >>> /home/sdcc-builder/build/sdcc-build/orig/sdcc/src/pic14/gen.c:7073:genIfx
00FE   1D03           01059         BTFSS   STATUS,2
                      01060 ;; >>> /home/sdcc-builder/build/sdcc-build/orig/sdcc/src/pic14/gen.c:7074:genIfx
                      01061 ;; ***  popGetLabel  key=25, label offset 33
00FF   2???           01062         GOTO    _00158_DS_
                      01063 ;;; /home/sdcc-builder/build/sdcc-build/orig/sdcc/src/pic14/gen.c:2358:resultRemat *{*
                      01064 ;; ***  genPlus  707
                      01065 ;;; /home/sdcc-builder/build/sdcc-build/orig/sdcc/src/pic14/genarith.c:708:genPlus *{*
                      01066 ;;      708 register type nRegs=2
                      01067 ;;      708 register type nRegs=2
                      01068 ;;      line = 714 result AOP_REG=r0x1054, size=2, left AOP_REG=r0x1050, size=2, right AOP_LIT=0x01, siz
                            e=1
                      01069 ;;; /home/sdcc-builder/build/sdcc-build/orig/sdcc/src/pic14/genarith.c:159:genPlusIncr *{*
                      01070 ;; ***  genPlusIncr  161
                      01071 ;;      result AOP_REG, left AOP_REG, right AOP_LIT
                      01072 ;;      genPlusIncr  173
                      01073 ;;      genPlusIncr  197
                      01074 ;;      adding lit to something. size 2
                      01075 ;;; /home/sdcc-builder/build/sdcc-build/orig/sdcc/src/pic14/genarith.c:286:genAddLit *{*
                      01076 ;; ***  genAddLit  287
                      01077 ;;  left and result aren't same genAddLit  537
                      01078 ;; >>> /home/sdcc-builder/build/sdcc-build/orig/sdcc/src/pic14/genarith.c:601:genAddLit
                      01079         .line   95; "PB.c"      (pb_info[current_button].samples[1] == PB_PRESSED_VOLTAGE))
0100   3001           01080         MOVLW   0x01
                      01081 ;; >>> /home/sdcc-builder/build/sdcc-build/orig/sdcc/src/pic14/genarith.c:602:genAddLit
                      01082 ;;      1126 rIdx = r0x1050 
0101   07??           01083         ADDWF   r0x1014,W
                      01084 ;;; /home/sdcc-builder/build/sdcc-build/orig/sdcc/src/pic14/genarith.c:270:emitMOVWF *{*
                      01085 ;; >>> /home/sdcc-builder/build/sdcc-build/orig/sdcc/src/pic14/genarith.c:274:emitMOVWF
                      01086 ;;      1126 rIdx = r0x1054 
0102   00??           01087         MOVWF   r0x1018
                      01088 ;; >>> /home/sdcc-builder/build/sdcc-build/orig/sdcc/src/pic14/genarith.c:677:genAddLit
                      01089 ;;      1126 rIdx = r0x1055 
0103   01??           01090         CLRF    r0x1019
                      01091 ;; >>> /home/sdcc-builder/build/sdcc-build/orig/sdcc/src/pic14/genarith.c:678:genAddLit
                      01092 ;;      1126 rIdx = r0x1055 
gpasm-1.5.0 #1285 (Sep 12 2016) obj\Debug\PB.   7-19-2020  03:04:20         PAGE 22


LOC    OBJECT CODE    LINE  SOURCE TEXT
  VALUE

0104   0D??           01093         RLF     r0x1019,F
                      01094 ;; >>> /home/sdcc-builder/build/sdcc-build/orig/sdcc/src/pic14/genarith.c:679:genAddLit
                      01095 ;;      1126 rIdx = r0x1051 
0105   08??           01096         MOVF    r0x1015,W
                      01097 ;; >>> /home/sdcc-builder/build/sdcc-build/orig/sdcc/src/pic14/genarith.c:680:genAddLit
                      01098 ;;      1126 rIdx = r0x1055 
0106   07??           01099         ADDWF   r0x1019,F
                      01100 ;; ***  addSign  1087
                      01101 ;;; /home/sdcc-builder/build/sdcc-build/orig/sdcc/src/pic14/genarith.c:1088:addSign *{*
                      01102 ;;; /home/sdcc-builder/build/sdcc-build/orig/sdcc/src/pic14/gen.c:2358:resultRemat *{*
                      01103 ;;; /home/sdcc-builder/build/sdcc-build/orig/sdcc/src/pic14/gen.c:6399:genPointerGet *{*
                      01104 ;; ***  genPointerGet  6400
                      01105 ;;; /home/sdcc-builder/build/sdcc-build/orig/sdcc/src/pic14/gen.c:6285:genNearPointerGet *{*
                      01106 ;; ***  genNearPointerGet  6286
                      01107 ;;      708 register type nRegs=2
                      01108 ;; ***  genNearPointerGet  6302
                      01109 ;;      708 register type nRegs=1
                      01110 ;;; /home/sdcc-builder/build/sdcc-build/orig/sdcc/src/pic14/gen.c:1357:mov2w_op *{*
                      01111 ;; ***  mov2w  1395  offset=0
                      01112 ;; >>> /home/sdcc-builder/build/sdcc-build/orig/sdcc/src/pic14/gen.c:1400:mov2w
                      01113 ;;      1126 rIdx = r0x1054 
0107   08??           01114         MOVF    r0x1018,W
                      01115 ;; >>> /home/sdcc-builder/build/sdcc-build/orig/sdcc/src/pic14/gen.c:5851:setup_fsr
0108   1283 1303      01116         BANKSEL FSR
010A   0084           01117         MOVWF   FSR
                      01118 ;;; /home/sdcc-builder/build/sdcc-build/orig/sdcc/src/pic14/gen.c:5802:SetIrp *{*
                      01119 ;; >>> /home/sdcc-builder/build/sdcc-build/orig/sdcc/src/pic14/gen.c:5829:SetIrp
010B   1383           01120         BCF     STATUS,7
                      01121 ;; >>> /home/sdcc-builder/build/sdcc-build/orig/sdcc/src/pic14/gen.c:5832:SetIrp
010C   0??? 0???      01122         BANKSEL r0x1019
010E   18??           01123         BTFSC   r0x1019,0
                      01124 ;; >>> /home/sdcc-builder/build/sdcc-build/orig/sdcc/src/pic14/gen.c:5833:SetIrp
010F   1783           01125         BSF     STATUS,7
                      01126 ;; >>> /home/sdcc-builder/build/sdcc-build/orig/sdcc/src/pic14/gen.c:6060:emitPtrGet
0110   1283 1303      01127         BANKSEL INDF
0112   0800           01128         MOVF    INDF,W
                      01129 ;; >>> /home/sdcc-builder/build/sdcc-build/orig/sdcc/src/pic14/gen.c:1407:movwf
                      01130 ;;      1126 rIdx = r0x1056 
0113   0??? 0???      01131         BANKSEL r0x101A
0115   00??           01132         MOVWF   r0x101A
                      01133 ;;; /home/sdcc-builder/build/sdcc-build/orig/sdcc/src/pic14/gen.c:2358:resultRemat *{*
                      01134 ;;; /home/sdcc-builder/build/sdcc-build/orig/sdcc/src/pic14/gen.c:7024:genIfx *{*
                      01135 ;; ***  genIfx  7025
                      01136 ;;      708 register type nRegs=1
                      01137 ;; ***  pic14_toBoolean  1515
                      01138 ;; ***  mov2w  1395  offset=0
                      01139 ;; >>> /home/sdcc-builder/build/sdcc-build/orig/sdcc/src/pic14/gen.c:1400:mov2w
                      01140 ;;      1126 rIdx = r0x1056 
0116   08??           01141         MOVF    r0x101A,W
                      01142 ;; >>> /home/sdcc-builder/build/sdcc-build/orig/sdcc/src/pic14/gen.c:7073:genIfx
0117   1D03           01143         BTFSS   STATUS,2
                      01144 ;; >>> /home/sdcc-builder/build/sdcc-build/orig/sdcc/src/pic14/gen.c:7074:genIfx
                      01145 ;; ***  popGetLabel  key=25, label offset 33
gpasm-1.5.0 #1285 (Sep 12 2016) obj\Debug\PB.   7-19-2020  03:04:20         PAGE 23


LOC    OBJECT CODE    LINE  SOURCE TEXT
  VALUE

0118   2???           01146         GOTO    _00158_DS_
                      01147 ;;; /home/sdcc-builder/build/sdcc-build/orig/sdcc/src/pic14/gen.c:2358:resultRemat *{*
                      01148 ;;; /home/sdcc-builder/build/sdcc-build/orig/sdcc/src/pic14/gen.c:6951:genPointerSet *{*
                      01149 ;; ***  genPointerSet  6952
                      01150 ;;; /home/sdcc-builder/build/sdcc-build/orig/sdcc/src/pic14/gen.c:6871:genNearPointerSet *{*
                      01151 ;; ***  genNearPointerSet  6872
                      01152 ;;      708 register type nRegs=2
                      01153 ;; ***  genNearPointerSet  6886
                      01154 ;;      line = 6888 result AOP_REG=r0x1052, size=2, left -=-, size=0, right AOP_LIT=0x01, size=1
                      01155 ;;; /home/sdcc-builder/build/sdcc-build/orig/sdcc/src/pic14/gen.c:1357:mov2w_op *{*
                      01156 ;; ***  mov2w  1395  offset=0
                      01157 ;; >>> /home/sdcc-builder/build/sdcc-build/orig/sdcc/src/pic14/gen.c:1400:mov2w
                      01158 ;;      1126 rIdx = r0x1052 
                      01159         .line   97; "PB.c"      pb_info[current_button].state = PB_PRE_PRESSED;
0119   08??           01160         MOVF    r0x1016,W
                      01161 ;; >>> /home/sdcc-builder/build/sdcc-build/orig/sdcc/src/pic14/gen.c:5851:setup_fsr
011A   1283 1303      01162         BANKSEL FSR
011C   0084           01163         MOVWF   FSR
                      01164 ;;; /home/sdcc-builder/build/sdcc-build/orig/sdcc/src/pic14/gen.c:5802:SetIrp *{*
                      01165 ;; >>> /home/sdcc-builder/build/sdcc-build/orig/sdcc/src/pic14/gen.c:5829:SetIrp
011D   1383           01166         BCF     STATUS,7
                      01167 ;; >>> /home/sdcc-builder/build/sdcc-build/orig/sdcc/src/pic14/gen.c:5832:SetIrp
011E   0??? 0???      01168         BANKSEL r0x1017
0120   18??           01169         BTFSC   r0x1017,0
                      01170 ;; >>> /home/sdcc-builder/build/sdcc-build/orig/sdcc/src/pic14/gen.c:5833:SetIrp
0121   1783           01171         BSF     STATUS,7
                      01172 ;; >>> /home/sdcc-builder/build/sdcc-build/orig/sdcc/src/pic14/gen.c:6636:emitPtrPut
0122   3001           01173         MOVLW   0x01
                      01174 ;; >>> /home/sdcc-builder/build/sdcc-build/orig/sdcc/src/pic14/gen.c:6639:emitPtrPut
0123   1283 1303      01175         BANKSEL INDF
0125   0080           01176         MOVWF   INDF
                      01177 ;; ***  genNearPointerSet  6905
                      01178 ;;; /home/sdcc-builder/build/sdcc-build/orig/sdcc/src/pic14/gen.c:2358:resultRemat *{*
                      01179 ;;; /home/sdcc-builder/build/sdcc-build/orig/sdcc/src/pic14/gen.c:2820:genGoto *{*
                      01180 ;; >>> /home/sdcc-builder/build/sdcc-build/orig/sdcc/src/pic14/gen.c:2822:genGoto
                      01181 ;; ***  popGetLabel  key=25, label offset 33
                      01182         .line   99; "PB.c"      break;
0126   2???           01183         GOTO    _00158_DS_
                      01184 ;;; /home/sdcc-builder/build/sdcc-build/orig/sdcc/src/pic14/gen.c:2358:resultRemat *{*
                      01185 ;;; /home/sdcc-builder/build/sdcc-build/orig/sdcc/src/pic14/gen.c:2802:genLabel *{*
                      01186 ;; ***  genLabel  2805
                      01187 ;;; /home/sdcc-builder/build/sdcc-build/orig/sdcc/src/pic14/gen.c:2358:resultRemat *{*
                      01188 ;; ***  genPlus  707
                      01189 ;;; /home/sdcc-builder/build/sdcc-build/orig/sdcc/src/pic14/genarith.c:708:genPlus *{*
                      01190 ;;      708 register type nRegs=2
                      01191 ;;      708 register type nRegs=2
                      01192 ;;      line = 714 result AOP_REG=r0x1054, size=2, left AOP_REG=r0x1050, size=2, right AOP_LIT=0x01, siz
                            e=1
                      01193 ;;; /home/sdcc-builder/build/sdcc-build/orig/sdcc/src/pic14/genarith.c:159:genPlusIncr *{*
                      01194 ;; ***  genPlusIncr  161
                      01195 ;;      result AOP_REG, left AOP_REG, right AOP_LIT
                      01196 ;;      genPlusIncr  173
                      01197 ;;      genPlusIncr  197
gpasm-1.5.0 #1285 (Sep 12 2016) obj\Debug\PB.   7-19-2020  03:04:20         PAGE 24


LOC    OBJECT CODE    LINE  SOURCE TEXT
  VALUE

                      01198 ;;      adding lit to something. size 2
                      01199 ;;; /home/sdcc-builder/build/sdcc-build/orig/sdcc/src/pic14/genarith.c:286:genAddLit *{*
                      01200 ;; ***  genAddLit  287
                      01201 ;;  left and result aren't same genAddLit  537
                      01202 ;; >>> /home/sdcc-builder/build/sdcc-build/orig/sdcc/src/pic14/genarith.c:601:genAddLit
0127                  01203 _00144_DS_:
                      01204         .line   101; "PB.c"     if(pb_info[current_button].samples[1] == PB_PRESSED_VOLTAGE)
0127   3001           01205         MOVLW   0x01
                      01206 ;; >>> /home/sdcc-builder/build/sdcc-build/orig/sdcc/src/pic14/genarith.c:602:genAddLit
                      01207 ;;      1126 rIdx = r0x1050 
0128   0??? 0???      01208         BANKSEL r0x1014
012A   07??           01209         ADDWF   r0x1014,W
                      01210 ;;; /home/sdcc-builder/build/sdcc-build/orig/sdcc/src/pic14/genarith.c:270:emitMOVWF *{*
                      01211 ;; >>> /home/sdcc-builder/build/sdcc-build/orig/sdcc/src/pic14/genarith.c:274:emitMOVWF
                      01212 ;;      1126 rIdx = r0x1054 
012B   00??           01213         MOVWF   r0x1018
                      01214 ;; >>> /home/sdcc-builder/build/sdcc-build/orig/sdcc/src/pic14/genarith.c:677:genAddLit
                      01215 ;;      1126 rIdx = r0x1055 
012C   01??           01216         CLRF    r0x1019
                      01217 ;; >>> /home/sdcc-builder/build/sdcc-build/orig/sdcc/src/pic14/genarith.c:678:genAddLit
                      01218 ;;      1126 rIdx = r0x1055 
012D   0D??           01219         RLF     r0x1019,F
                      01220 ;; >>> /home/sdcc-builder/build/sdcc-build/orig/sdcc/src/pic14/genarith.c:679:genAddLit
                      01221 ;;      1126 rIdx = r0x1051 
012E   08??           01222         MOVF    r0x1015,W
                      01223 ;; >>> /home/sdcc-builder/build/sdcc-build/orig/sdcc/src/pic14/genarith.c:680:genAddLit
                      01224 ;;      1126 rIdx = r0x1055 
012F   07??           01225         ADDWF   r0x1019,F
                      01226 ;; ***  addSign  1087
                      01227 ;;; /home/sdcc-builder/build/sdcc-build/orig/sdcc/src/pic14/genarith.c:1088:addSign *{*
                      01228 ;;; /home/sdcc-builder/build/sdcc-build/orig/sdcc/src/pic14/gen.c:2358:resultRemat *{*
                      01229 ;;; /home/sdcc-builder/build/sdcc-build/orig/sdcc/src/pic14/gen.c:6399:genPointerGet *{*
                      01230 ;; ***  genPointerGet  6400
                      01231 ;;; /home/sdcc-builder/build/sdcc-build/orig/sdcc/src/pic14/gen.c:6285:genNearPointerGet *{*
                      01232 ;; ***  genNearPointerGet  6286
                      01233 ;;      708 register type nRegs=2
                      01234 ;; ***  genNearPointerGet  6302
                      01235 ;;      708 register type nRegs=1
                      01236 ;;; /home/sdcc-builder/build/sdcc-build/orig/sdcc/src/pic14/gen.c:1357:mov2w_op *{*
                      01237 ;; ***  mov2w  1395  offset=0
                      01238 ;; >>> /home/sdcc-builder/build/sdcc-build/orig/sdcc/src/pic14/gen.c:1400:mov2w
                      01239 ;;      1126 rIdx = r0x1054 
0130   08??           01240         MOVF    r0x1018,W
                      01241 ;; >>> /home/sdcc-builder/build/sdcc-build/orig/sdcc/src/pic14/gen.c:5851:setup_fsr
0131   1283 1303      01242         BANKSEL FSR
0133   0084           01243         MOVWF   FSR
                      01244 ;;; /home/sdcc-builder/build/sdcc-build/orig/sdcc/src/pic14/gen.c:5802:SetIrp *{*
                      01245 ;; >>> /home/sdcc-builder/build/sdcc-build/orig/sdcc/src/pic14/gen.c:5829:SetIrp
0134   1383           01246         BCF     STATUS,7
                      01247 ;; >>> /home/sdcc-builder/build/sdcc-build/orig/sdcc/src/pic14/gen.c:5832:SetIrp
0135   0??? 0???      01248         BANKSEL r0x1019
0137   18??           01249         BTFSC   r0x1019,0
                      01250 ;; >>> /home/sdcc-builder/build/sdcc-build/orig/sdcc/src/pic14/gen.c:5833:SetIrp
gpasm-1.5.0 #1285 (Sep 12 2016) obj\Debug\PB.   7-19-2020  03:04:20         PAGE 25


LOC    OBJECT CODE    LINE  SOURCE TEXT
  VALUE

0138   1783           01251         BSF     STATUS,7
                      01252 ;; >>> /home/sdcc-builder/build/sdcc-build/orig/sdcc/src/pic14/gen.c:6060:emitPtrGet
0139   1283 1303      01253         BANKSEL INDF
013B   0800           01254         MOVF    INDF,W
                      01255 ;; >>> /home/sdcc-builder/build/sdcc-build/orig/sdcc/src/pic14/gen.c:1407:movwf
                      01256 ;;      1126 rIdx = r0x1056 
013C   0??? 0???      01257         BANKSEL r0x101A
013E   00??           01258         MOVWF   r0x101A
                      01259 ;;; /home/sdcc-builder/build/sdcc-build/orig/sdcc/src/pic14/gen.c:2358:resultRemat *{*
                      01260 ;;; /home/sdcc-builder/build/sdcc-build/orig/sdcc/src/pic14/gen.c:7024:genIfx *{*
                      01261 ;; ***  genIfx  7025
                      01262 ;;      708 register type nRegs=1
                      01263 ;; ***  pic14_toBoolean  1515
                      01264 ;; ***  mov2w  1395  offset=0
                      01265 ;; >>> /home/sdcc-builder/build/sdcc-build/orig/sdcc/src/pic14/gen.c:1400:mov2w
                      01266 ;;      1126 rIdx = r0x1056 
013F   08??           01267         MOVF    r0x101A,W
                      01268 ;; >>> /home/sdcc-builder/build/sdcc-build/orig/sdcc/src/pic14/gen.c:7073:genIfx
0140   1D03           01269         BTFSS   STATUS,2
                      01270 ;; >>> /home/sdcc-builder/build/sdcc-build/orig/sdcc/src/pic14/gen.c:7074:genIfx
                      01271 ;; ***  popGetLabel  key=25, label offset 33
0141   2???           01272         GOTO    _00158_DS_
                      01273 ;;; /home/sdcc-builder/build/sdcc-build/orig/sdcc/src/pic14/gen.c:2358:resultRemat *{*
                      01274 ;;; /home/sdcc-builder/build/sdcc-build/orig/sdcc/src/pic14/gen.c:6951:genPointerSet *{*
                      01275 ;; ***  genPointerSet  6952
                      01276 ;;; /home/sdcc-builder/build/sdcc-build/orig/sdcc/src/pic14/gen.c:6871:genNearPointerSet *{*
                      01277 ;; ***  genNearPointerSet  6872
                      01278 ;;      708 register type nRegs=2
                      01279 ;; ***  genNearPointerSet  6886
                      01280 ;;      line = 6888 result AOP_REG=r0x1052, size=2, left -=-, size=0, right AOP_LIT=0x02, size=1
                      01281 ;;; /home/sdcc-builder/build/sdcc-build/orig/sdcc/src/pic14/gen.c:1357:mov2w_op *{*
                      01282 ;; ***  mov2w  1395  offset=0
                      01283 ;; >>> /home/sdcc-builder/build/sdcc-build/orig/sdcc/src/pic14/gen.c:1400:mov2w
                      01284 ;;      1126 rIdx = r0x1052 
                      01285         .line   103; "PB.c"     pb_info[current_button].state = PB_PRESSED;
0142   08??           01286         MOVF    r0x1016,W
                      01287 ;; >>> /home/sdcc-builder/build/sdcc-build/orig/sdcc/src/pic14/gen.c:5851:setup_fsr
0143   1283 1303      01288         BANKSEL FSR
0145   0084           01289         MOVWF   FSR
                      01290 ;;; /home/sdcc-builder/build/sdcc-build/orig/sdcc/src/pic14/gen.c:5802:SetIrp *{*
                      01291 ;; >>> /home/sdcc-builder/build/sdcc-build/orig/sdcc/src/pic14/gen.c:5829:SetIrp
0146   1383           01292         BCF     STATUS,7
                      01293 ;; >>> /home/sdcc-builder/build/sdcc-build/orig/sdcc/src/pic14/gen.c:5832:SetIrp
0147   0??? 0???      01294         BANKSEL r0x1017
0149   18??           01295         BTFSC   r0x1017,0
                      01296 ;; >>> /home/sdcc-builder/build/sdcc-build/orig/sdcc/src/pic14/gen.c:5833:SetIrp
014A   1783           01297         BSF     STATUS,7
                      01298 ;; >>> /home/sdcc-builder/build/sdcc-build/orig/sdcc/src/pic14/gen.c:6636:emitPtrPut
014B   3002           01299         MOVLW   0x02
                      01300 ;; >>> /home/sdcc-builder/build/sdcc-build/orig/sdcc/src/pic14/gen.c:6639:emitPtrPut
014C   1283 1303      01301         BANKSEL INDF
014E   0080           01302         MOVWF   INDF
                      01303 ;; ***  genNearPointerSet  6905
gpasm-1.5.0 #1285 (Sep 12 2016) obj\Debug\PB.   7-19-2020  03:04:20         PAGE 26


LOC    OBJECT CODE    LINE  SOURCE TEXT
  VALUE

                      01304 ;;; /home/sdcc-builder/build/sdcc-build/orig/sdcc/src/pic14/gen.c:2358:resultRemat *{*
                      01305 ;;; /home/sdcc-builder/build/sdcc-build/orig/sdcc/src/pic14/gen.c:2820:genGoto *{*
                      01306 ;; >>> /home/sdcc-builder/build/sdcc-build/orig/sdcc/src/pic14/gen.c:2822:genGoto
                      01307 ;; ***  popGetLabel  key=25, label offset 33
                      01308         .line   105; "PB.c"     break;
014F   2???           01309         GOTO    _00158_DS_
                      01310 ;;; /home/sdcc-builder/build/sdcc-build/orig/sdcc/src/pic14/gen.c:2358:resultRemat *{*
                      01311 ;;; /home/sdcc-builder/build/sdcc-build/orig/sdcc/src/pic14/gen.c:2802:genLabel *{*
                      01312 ;; ***  genLabel  2805
                      01313 ;;; /home/sdcc-builder/build/sdcc-build/orig/sdcc/src/pic14/gen.c:2358:resultRemat *{*
                      01314 ;;; /home/sdcc-builder/build/sdcc-build/orig/sdcc/src/pic14/gen.c:6399:genPointerGet *{*
                      01315 ;; ***  genPointerGet  6400
                      01316 ;;; /home/sdcc-builder/build/sdcc-build/orig/sdcc/src/pic14/gen.c:6285:genNearPointerGet *{*
                      01317 ;; ***  genNearPointerGet  6286
                      01318 ;;      708 register type nRegs=2
                      01319 ;; ***  genNearPointerGet  6302
                      01320 ;;      708 register type nRegs=1
                      01321 ;;; /home/sdcc-builder/build/sdcc-build/orig/sdcc/src/pic14/gen.c:1357:mov2w_op *{*
                      01322 ;; ***  mov2w  1395  offset=0
                      01323 ;; >>> /home/sdcc-builder/build/sdcc-build/orig/sdcc/src/pic14/gen.c:1400:mov2w
                      01324 ;;      1126 rIdx = r0x1050 
0150                  01325 _00147_DS_:
                      01326         .line   107; "PB.c"     if((pb_info[current_button].samples[0] == PB_RELEASED_VOLTAGE) &&
0150   0??? 0???      01327         BANKSEL r0x1014
0152   08??           01328         MOVF    r0x1014,W
                      01329 ;; >>> /home/sdcc-builder/build/sdcc-build/orig/sdcc/src/pic14/gen.c:5851:setup_fsr
0153   1283 1303      01330         BANKSEL FSR
0155   0084           01331         MOVWF   FSR
                      01332 ;;; /home/sdcc-builder/build/sdcc-build/orig/sdcc/src/pic14/gen.c:5802:SetIrp *{*
                      01333 ;; >>> /home/sdcc-builder/build/sdcc-build/orig/sdcc/src/pic14/gen.c:5829:SetIrp
0156   1383           01334         BCF     STATUS,7
                      01335 ;; >>> /home/sdcc-builder/build/sdcc-build/orig/sdcc/src/pic14/gen.c:5832:SetIrp
0157   0??? 0???      01336         BANKSEL r0x1015
0159   18??           01337         BTFSC   r0x1015,0
                      01338 ;; >>> /home/sdcc-builder/build/sdcc-build/orig/sdcc/src/pic14/gen.c:5833:SetIrp
015A   1783           01339         BSF     STATUS,7
                      01340 ;; >>> /home/sdcc-builder/build/sdcc-build/orig/sdcc/src/pic14/gen.c:6060:emitPtrGet
015B   1283 1303      01341         BANKSEL INDF
015D   0800           01342         MOVF    INDF,W
                      01343 ;; >>> /home/sdcc-builder/build/sdcc-build/orig/sdcc/src/pic14/gen.c:1407:movwf
                      01344 ;;      1126 rIdx = r0x1054 
015E   0??? 0???      01345         BANKSEL r0x1018
0160   00??           01346         MOVWF   r0x1018
0161   3A01           01347         XORLW   0x01
                      01348 ;; >>> /home/sdcc-builder/build/sdcc-build/orig/sdcc/src/pic14/gen.c:3771:genCmpEq
0162   1D03           01349         BTFSS   STATUS,2
                      01350 ;; >>> /home/sdcc-builder/build/sdcc-build/orig/sdcc/src/pic14/gen.c:3774:genCmpEq
                      01351 ;; ***  popGetLabel  key=25, label offset 33
0163   2???           01352         GOTO    _00158_DS_
                      01353 ;;; /home/sdcc-builder/build/sdcc-build/orig/sdcc/src/pic14/gen.c:2358:resultRemat *{*
                      01354 ;;; /home/sdcc-builder/build/sdcc-build/orig/sdcc/src/pic14/gen.c:2358:resultRemat *{*
                      01355 ;; ***  genPlus  707
                      01356 ;;; /home/sdcc-builder/build/sdcc-build/orig/sdcc/src/pic14/genarith.c:708:genPlus *{*
gpasm-1.5.0 #1285 (Sep 12 2016) obj\Debug\PB.   7-19-2020  03:04:20         PAGE 27


LOC    OBJECT CODE    LINE  SOURCE TEXT
  VALUE

                      01357 ;;      708 register type nRegs=2
                      01358 ;;      708 register type nRegs=2
                      01359 ;;      line = 714 result AOP_REG=r0x1054, size=2, left AOP_REG=r0x1050, size=2, right AOP_LIT=0x01, siz
                            e=1
                      01360 ;;; /home/sdcc-builder/build/sdcc-build/orig/sdcc/src/pic14/genarith.c:159:genPlusIncr *{*
                      01361 ;; ***  genPlusIncr  161
                      01362 ;;      result AOP_REG, left AOP_REG, right AOP_LIT
                      01363 ;;      genPlusIncr  173
                      01364 ;;      genPlusIncr  197
                      01365 ;;      adding lit to something. size 2
                      01366 ;;; /home/sdcc-builder/build/sdcc-build/orig/sdcc/src/pic14/genarith.c:286:genAddLit *{*
                      01367 ;; ***  genAddLit  287
                      01368 ;;  left and result aren't same genAddLit  537
                      01369 ;; >>> /home/sdcc-builder/build/sdcc-build/orig/sdcc/src/pic14/genarith.c:601:genAddLit
                      01370         .line   108; "PB.c"     (pb_info[current_button].samples[1] == PB_RELEASED_VOLTAGE))
0164   3001           01371         MOVLW   0x01
                      01372 ;; >>> /home/sdcc-builder/build/sdcc-build/orig/sdcc/src/pic14/genarith.c:602:genAddLit
                      01373 ;;      1126 rIdx = r0x1050 
0165   07??           01374         ADDWF   r0x1014,W
                      01375 ;;; /home/sdcc-builder/build/sdcc-build/orig/sdcc/src/pic14/genarith.c:270:emitMOVWF *{*
                      01376 ;; >>> /home/sdcc-builder/build/sdcc-build/orig/sdcc/src/pic14/genarith.c:274:emitMOVWF
                      01377 ;;      1126 rIdx = r0x1054 
0166   00??           01378         MOVWF   r0x1018
                      01379 ;; >>> /home/sdcc-builder/build/sdcc-build/orig/sdcc/src/pic14/genarith.c:677:genAddLit
                      01380 ;;      1126 rIdx = r0x1055 
0167   01??           01381         CLRF    r0x1019
                      01382 ;; >>> /home/sdcc-builder/build/sdcc-build/orig/sdcc/src/pic14/genarith.c:678:genAddLit
                      01383 ;;      1126 rIdx = r0x1055 
0168   0D??           01384         RLF     r0x1019,F
                      01385 ;; >>> /home/sdcc-builder/build/sdcc-build/orig/sdcc/src/pic14/genarith.c:679:genAddLit
                      01386 ;;      1126 rIdx = r0x1051 
0169   08??           01387         MOVF    r0x1015,W
                      01388 ;; >>> /home/sdcc-builder/build/sdcc-build/orig/sdcc/src/pic14/genarith.c:680:genAddLit
                      01389 ;;      1126 rIdx = r0x1055 
016A   07??           01390         ADDWF   r0x1019,F
                      01391 ;; ***  addSign  1087
                      01392 ;;; /home/sdcc-builder/build/sdcc-build/orig/sdcc/src/pic14/genarith.c:1088:addSign *{*
                      01393 ;;; /home/sdcc-builder/build/sdcc-build/orig/sdcc/src/pic14/gen.c:2358:resultRemat *{*
                      01394 ;;; /home/sdcc-builder/build/sdcc-build/orig/sdcc/src/pic14/gen.c:6399:genPointerGet *{*
                      01395 ;; ***  genPointerGet  6400
                      01396 ;;; /home/sdcc-builder/build/sdcc-build/orig/sdcc/src/pic14/gen.c:6285:genNearPointerGet *{*
                      01397 ;; ***  genNearPointerGet  6286
                      01398 ;;      708 register type nRegs=2
                      01399 ;; ***  genNearPointerGet  6302
                      01400 ;;      708 register type nRegs=1
                      01401 ;;; /home/sdcc-builder/build/sdcc-build/orig/sdcc/src/pic14/gen.c:1357:mov2w_op *{*
                      01402 ;; ***  mov2w  1395  offset=0
                      01403 ;; >>> /home/sdcc-builder/build/sdcc-build/orig/sdcc/src/pic14/gen.c:1400:mov2w
                      01404 ;;      1126 rIdx = r0x1054 
016B   08??           01405         MOVF    r0x1018,W
                      01406 ;; >>> /home/sdcc-builder/build/sdcc-build/orig/sdcc/src/pic14/gen.c:5851:setup_fsr
016C   1283 1303      01407         BANKSEL FSR
016E   0084           01408         MOVWF   FSR
gpasm-1.5.0 #1285 (Sep 12 2016) obj\Debug\PB.   7-19-2020  03:04:20         PAGE 28


LOC    OBJECT CODE    LINE  SOURCE TEXT
  VALUE

                      01409 ;;; /home/sdcc-builder/build/sdcc-build/orig/sdcc/src/pic14/gen.c:5802:SetIrp *{*
                      01410 ;; >>> /home/sdcc-builder/build/sdcc-build/orig/sdcc/src/pic14/gen.c:5829:SetIrp
016F   1383           01411         BCF     STATUS,7
                      01412 ;; >>> /home/sdcc-builder/build/sdcc-build/orig/sdcc/src/pic14/gen.c:5832:SetIrp
0170   0??? 0???      01413         BANKSEL r0x1019
0172   18??           01414         BTFSC   r0x1019,0
                      01415 ;; >>> /home/sdcc-builder/build/sdcc-build/orig/sdcc/src/pic14/gen.c:5833:SetIrp
0173   1783           01416         BSF     STATUS,7
                      01417 ;; >>> /home/sdcc-builder/build/sdcc-build/orig/sdcc/src/pic14/gen.c:6060:emitPtrGet
0174   1283 1303      01418         BANKSEL INDF
0176   0800           01419         MOVF    INDF,W
                      01420 ;; >>> /home/sdcc-builder/build/sdcc-build/orig/sdcc/src/pic14/gen.c:1407:movwf
                      01421 ;;      1126 rIdx = r0x1056 
0177   0??? 0???      01422         BANKSEL r0x101A
0179   00??           01423         MOVWF   r0x101A
017A   3A01           01424         XORLW   0x01
                      01425 ;; >>> /home/sdcc-builder/build/sdcc-build/orig/sdcc/src/pic14/gen.c:3771:genCmpEq
017B   1D03           01426         BTFSS   STATUS,2
                      01427 ;; >>> /home/sdcc-builder/build/sdcc-build/orig/sdcc/src/pic14/gen.c:3774:genCmpEq
                      01428 ;; ***  popGetLabel  key=25, label offset 33
017C   2???           01429         GOTO    _00158_DS_
                      01430 ;;; /home/sdcc-builder/build/sdcc-build/orig/sdcc/src/pic14/gen.c:2358:resultRemat *{*
                      01431 ;;; /home/sdcc-builder/build/sdcc-build/orig/sdcc/src/pic14/gen.c:2358:resultRemat *{*
                      01432 ;;; /home/sdcc-builder/build/sdcc-build/orig/sdcc/src/pic14/gen.c:6951:genPointerSet *{*
                      01433 ;; ***  genPointerSet  6952
                      01434 ;;; /home/sdcc-builder/build/sdcc-build/orig/sdcc/src/pic14/gen.c:6871:genNearPointerSet *{*
                      01435 ;; ***  genNearPointerSet  6872
                      01436 ;;      708 register type nRegs=2
                      01437 ;; ***  genNearPointerSet  6886
                      01438 ;;      line = 6888 result AOP_REG=r0x1052, size=2, left -=-, size=0, right AOP_LIT=0x03, size=1
                      01439 ;;; /home/sdcc-builder/build/sdcc-build/orig/sdcc/src/pic14/gen.c:1357:mov2w_op *{*
                      01440 ;; ***  mov2w  1395  offset=0
                      01441 ;; >>> /home/sdcc-builder/build/sdcc-build/orig/sdcc/src/pic14/gen.c:1400:mov2w
                      01442 ;;      1126 rIdx = r0x1052 
                      01443         .line   110; "PB.c"     pb_info[current_button].state = PB_PRE_RELEASED;
017D   08??           01444         MOVF    r0x1016,W
                      01445 ;; >>> /home/sdcc-builder/build/sdcc-build/orig/sdcc/src/pic14/gen.c:5851:setup_fsr
017E   1283 1303      01446         BANKSEL FSR
0180   0084           01447         MOVWF   FSR
                      01448 ;;; /home/sdcc-builder/build/sdcc-build/orig/sdcc/src/pic14/gen.c:5802:SetIrp *{*
                      01449 ;; >>> /home/sdcc-builder/build/sdcc-build/orig/sdcc/src/pic14/gen.c:5829:SetIrp
0181   1383           01450         BCF     STATUS,7
                      01451 ;; >>> /home/sdcc-builder/build/sdcc-build/orig/sdcc/src/pic14/gen.c:5832:SetIrp
0182   0??? 0???      01452         BANKSEL r0x1017
0184   18??           01453         BTFSC   r0x1017,0
                      01454 ;; >>> /home/sdcc-builder/build/sdcc-build/orig/sdcc/src/pic14/gen.c:5833:SetIrp
0185   1783           01455         BSF     STATUS,7
                      01456 ;; >>> /home/sdcc-builder/build/sdcc-build/orig/sdcc/src/pic14/gen.c:6636:emitPtrPut
0186   3003           01457         MOVLW   0x03
                      01458 ;; >>> /home/sdcc-builder/build/sdcc-build/orig/sdcc/src/pic14/gen.c:6639:emitPtrPut
0187   1283 1303      01459         BANKSEL INDF
0189   0080           01460         MOVWF   INDF
                      01461 ;; ***  genNearPointerSet  6905
gpasm-1.5.0 #1285 (Sep 12 2016) obj\Debug\PB.   7-19-2020  03:04:20         PAGE 29


LOC    OBJECT CODE    LINE  SOURCE TEXT
  VALUE

                      01462 ;;; /home/sdcc-builder/build/sdcc-build/orig/sdcc/src/pic14/gen.c:2358:resultRemat *{*
                      01463 ;;; /home/sdcc-builder/build/sdcc-build/orig/sdcc/src/pic14/gen.c:2820:genGoto *{*
                      01464 ;; >>> /home/sdcc-builder/build/sdcc-build/orig/sdcc/src/pic14/gen.c:2822:genGoto
                      01465 ;; ***  popGetLabel  key=25, label offset 33
                      01466         .line   112; "PB.c"     break;
018A   2???           01467         GOTO    _00158_DS_
                      01468 ;;; /home/sdcc-builder/build/sdcc-build/orig/sdcc/src/pic14/gen.c:2358:resultRemat *{*
                      01469 ;;; /home/sdcc-builder/build/sdcc-build/orig/sdcc/src/pic14/gen.c:2802:genLabel *{*
                      01470 ;; ***  genLabel  2805
                      01471 ;;; /home/sdcc-builder/build/sdcc-build/orig/sdcc/src/pic14/gen.c:2358:resultRemat *{*
                      01472 ;; ***  genPlus  707
                      01473 ;;; /home/sdcc-builder/build/sdcc-build/orig/sdcc/src/pic14/genarith.c:708:genPlus *{*
                      01474 ;;      708 register type nRegs=2
                      01475 ;;      708 register type nRegs=2
                      01476 ;;      line = 714 result AOP_REG=r0x1050, size=2, left AOP_REG=r0x1050, size=2, right AOP_LIT=0x01, siz
                            e=1
                      01477 ;;; /home/sdcc-builder/build/sdcc-build/orig/sdcc/src/pic14/genarith.c:159:genPlusIncr *{*
                      01478 ;; ***  genPlusIncr  161
                      01479 ;;      result AOP_REG, left AOP_REG, right AOP_LIT
                      01480 ;;      genPlusIncr  173
                      01481 ;; >>> /home/sdcc-builder/build/sdcc-build/orig/sdcc/src/pic14/genarith.c:185:genPlusIncr
                      01482 ;;      1126 rIdx = r0x1050 
018B                  01483 _00151_DS_:
                      01484         .line   114; "PB.c"     if(pb_info[current_button].samples[1] == PB_RELEASED_VOLTAGE)
018B   0??? 0???      01485         BANKSEL r0x1014
018D   0A??           01486         INCF    r0x1014,F
                      01487 ;; >>> /home/sdcc-builder/build/sdcc-build/orig/sdcc/src/pic14/genarith.c:189:genPlusIncr
018E   1903           01488         BTFSC   STATUS,2
                      01489 ;; >>> /home/sdcc-builder/build/sdcc-build/orig/sdcc/src/pic14/genarith.c:190:genPlusIncr
                      01490 ;;      1126 rIdx = r0x1051 
018F   0A??           01491         INCF    r0x1015,F
                      01492 ;;; /home/sdcc-builder/build/sdcc-build/orig/sdcc/src/pic14/gen.c:2358:resultRemat *{*
                      01493 ;;; /home/sdcc-builder/build/sdcc-build/orig/sdcc/src/pic14/gen.c:6399:genPointerGet *{*
                      01494 ;; ***  genPointerGet  6400
                      01495 ;;; /home/sdcc-builder/build/sdcc-build/orig/sdcc/src/pic14/gen.c:6285:genNearPointerGet *{*
                      01496 ;; ***  genNearPointerGet  6286
                      01497 ;;      708 register type nRegs=2
                      01498 ;; ***  genNearPointerGet  6302
                      01499 ;;      708 register type nRegs=1
                      01500 ;;; /home/sdcc-builder/build/sdcc-build/orig/sdcc/src/pic14/gen.c:1357:mov2w_op *{*
                      01501 ;; ***  mov2w  1395  offset=0
                      01502 ;; >>> /home/sdcc-builder/build/sdcc-build/orig/sdcc/src/pic14/gen.c:1400:mov2w
                      01503 ;;      1126 rIdx = r0x1050 
0190   08??           01504         MOVF    r0x1014,W
                      01505 ;; >>> /home/sdcc-builder/build/sdcc-build/orig/sdcc/src/pic14/gen.c:5851:setup_fsr
0191   1283 1303      01506         BANKSEL FSR
0193   0084           01507         MOVWF   FSR
                      01508 ;;; /home/sdcc-builder/build/sdcc-build/orig/sdcc/src/pic14/gen.c:5802:SetIrp *{*
                      01509 ;; >>> /home/sdcc-builder/build/sdcc-build/orig/sdcc/src/pic14/gen.c:5829:SetIrp
0194   1383           01510         BCF     STATUS,7
                      01511 ;; >>> /home/sdcc-builder/build/sdcc-build/orig/sdcc/src/pic14/gen.c:5832:SetIrp
0195   0??? 0???      01512         BANKSEL r0x1015
0197   18??           01513         BTFSC   r0x1015,0
gpasm-1.5.0 #1285 (Sep 12 2016) obj\Debug\PB.   7-19-2020  03:04:20         PAGE 30


LOC    OBJECT CODE    LINE  SOURCE TEXT
  VALUE

                      01514 ;; >>> /home/sdcc-builder/build/sdcc-build/orig/sdcc/src/pic14/gen.c:5833:SetIrp
0198   1783           01515         BSF     STATUS,7
                      01516 ;; >>> /home/sdcc-builder/build/sdcc-build/orig/sdcc/src/pic14/gen.c:6060:emitPtrGet
0199   1283 1303      01517         BANKSEL INDF
019B   0800           01518         MOVF    INDF,W
                      01519 ;; >>> /home/sdcc-builder/build/sdcc-build/orig/sdcc/src/pic14/gen.c:1407:movwf
                      01520 ;;      1126 rIdx = r0x1054 
019C   0??? 0???      01521         BANKSEL r0x1018
019E   00??           01522         MOVWF   r0x1018
019F   3A01           01523         XORLW   0x01
                      01524 ;; >>> /home/sdcc-builder/build/sdcc-build/orig/sdcc/src/pic14/gen.c:3771:genCmpEq
01A0   1D03           01525         BTFSS   STATUS,2
                      01526 ;; >>> /home/sdcc-builder/build/sdcc-build/orig/sdcc/src/pic14/gen.c:3774:genCmpEq
                      01527 ;; ***  popGetLabel  key=25, label offset 33
01A1   2???           01528         GOTO    _00158_DS_
                      01529 ;;; /home/sdcc-builder/build/sdcc-build/orig/sdcc/src/pic14/gen.c:2358:resultRemat *{*
                      01530 ;;; /home/sdcc-builder/build/sdcc-build/orig/sdcc/src/pic14/gen.c:2358:resultRemat *{*
                      01531 ;;; /home/sdcc-builder/build/sdcc-build/orig/sdcc/src/pic14/gen.c:6951:genPointerSet *{*
                      01532 ;; ***  genPointerSet  6952
                      01533 ;;; /home/sdcc-builder/build/sdcc-build/orig/sdcc/src/pic14/gen.c:6871:genNearPointerSet *{*
                      01534 ;; ***  genNearPointerSet  6872
                      01535 ;;      708 register type nRegs=2
                      01536 ;; ***  genNearPointerSet  6886
                      01537 ;;      line = 6888 result AOP_REG=r0x1052, size=2, left -=-, size=0, right AOP_LIT=0x00, size=1
                      01538 ;;; /home/sdcc-builder/build/sdcc-build/orig/sdcc/src/pic14/gen.c:1357:mov2w_op *{*
                      01539 ;; ***  mov2w  1395  offset=0
                      01540 ;; >>> /home/sdcc-builder/build/sdcc-build/orig/sdcc/src/pic14/gen.c:1400:mov2w
                      01541 ;;      1126 rIdx = r0x1052 
                      01542         .line   116; "PB.c"     pb_info[current_button].state = PB_RELEASED;
01A2   08??           01543         MOVF    r0x1016,W
                      01544 ;; >>> /home/sdcc-builder/build/sdcc-build/orig/sdcc/src/pic14/gen.c:5851:setup_fsr
01A3   1283 1303      01545         BANKSEL FSR
01A5   0084           01546         MOVWF   FSR
                      01547 ;;; /home/sdcc-builder/build/sdcc-build/orig/sdcc/src/pic14/gen.c:5802:SetIrp *{*
                      01548 ;; >>> /home/sdcc-builder/build/sdcc-build/orig/sdcc/src/pic14/gen.c:5829:SetIrp
01A6   1383           01549         BCF     STATUS,7
                      01550 ;; >>> /home/sdcc-builder/build/sdcc-build/orig/sdcc/src/pic14/gen.c:5832:SetIrp
01A7   0??? 0???      01551         BANKSEL r0x1017
01A9   18??           01552         BTFSC   r0x1017,0
                      01553 ;; >>> /home/sdcc-builder/build/sdcc-build/orig/sdcc/src/pic14/gen.c:5833:SetIrp
01AA   1783           01554         BSF     STATUS,7
                      01555 ;; >>> /home/sdcc-builder/build/sdcc-build/orig/sdcc/src/pic14/gen.c:6636:emitPtrPut
01AB   3000           01556         MOVLW   0x00
                      01557 ;; >>> /home/sdcc-builder/build/sdcc-build/orig/sdcc/src/pic14/gen.c:6639:emitPtrPut
01AC   1283 1303      01558         BANKSEL INDF
01AE   0080           01559         MOVWF   INDF
                      01560 ;; ***  genNearPointerSet  6905
                      01561 ;;; /home/sdcc-builder/build/sdcc-build/orig/sdcc/src/pic14/gen.c:2358:resultRemat *{*
                      01562 ;;; /home/sdcc-builder/build/sdcc-build/orig/sdcc/src/pic14/gen.c:2802:genLabel *{*
                      01563 ;; ***  genLabel  2805
                      01564 ;;; /home/sdcc-builder/build/sdcc-build/orig/sdcc/src/pic14/gen.c:2358:resultRemat *{*
                      01565 ;; ***  genPlus  707
                      01566 ;;; /home/sdcc-builder/build/sdcc-build/orig/sdcc/src/pic14/genarith.c:708:genPlus *{*
gpasm-1.5.0 #1285 (Sep 12 2016) obj\Debug\PB.   7-19-2020  03:04:20         PAGE 31


LOC    OBJECT CODE    LINE  SOURCE TEXT
  VALUE

                      01567 ;;      708 register type nRegs=2
                      01568 ;;      589
                      01569 ;;      line = 714 result AOP_REG=r0x104C, size=2, left AOP_REG=r0x104C, size=2, right AOP_LIT=0x03, siz
                            e=1
                      01570 ;;; /home/sdcc-builder/build/sdcc-build/orig/sdcc/src/pic14/genarith.c:159:genPlusIncr *{*
                      01571 ;; ***  genPlusIncr  161
                      01572 ;;      result AOP_REG, left AOP_REG, right AOP_LIT
                      01573 ;;      genPlusIncr  173
                      01574 ;;      adding lit to something. size 2
                      01575 ;;; /home/sdcc-builder/build/sdcc-build/orig/sdcc/src/pic14/genarith.c:286:genAddLit *{*
                      01576 ;; ***  genAddLit  287
                      01577 ;; hi = 0       genAddLit  351
                      01578 ;; >>> /home/sdcc-builder/build/sdcc-build/orig/sdcc/src/pic14/genarith.c:367:genAddLit
01AF                  01579 _00158_DS_:
                      01580         .line   66; "PB.c"      for (current_button = PB_PLUS; current_button < PB_UNUSED_2; current_but
                            ton++)
01AF   3003           01581         MOVLW   0x03
                      01582 ;; >>> /home/sdcc-builder/build/sdcc-build/orig/sdcc/src/pic14/genarith.c:368:genAddLit
                      01583 ;;      1126 rIdx = r0x104C 
01B0   0??? 0???      01584         BANKSEL r0x1010
01B2   07??           01585         ADDWF   r0x1010,F
                      01586 ;; >>> /home/sdcc-builder/build/sdcc-build/orig/sdcc/src/pic14/genarith.c:369:genAddLit
01B3   1803           01587         BTFSC   STATUS,0
                      01588 ;; >>> /home/sdcc-builder/build/sdcc-build/orig/sdcc/src/pic14/genarith.c:370:genAddLit
                      01589 ;;      1126 rIdx = r0x104D 
01B4   0A??           01590         INCF    r0x1011,F
                      01591 ;; ***  addSign  1087
                      01592 ;;; /home/sdcc-builder/build/sdcc-build/orig/sdcc/src/pic14/genarith.c:1088:addSign *{*
                      01593 ;;; /home/sdcc-builder/build/sdcc-build/orig/sdcc/src/pic14/gen.c:2358:resultRemat *{*
                      01594 ;; ***  genPlus  707
                      01595 ;;; /home/sdcc-builder/build/sdcc-build/orig/sdcc/src/pic14/genarith.c:708:genPlus *{*
                      01596 ;;      708 register type nRegs=2
                      01597 ;;      589
                      01598 ;;      line = 714 result AOP_REG=r0x104E, size=2, left AOP_REG=r0x104E, size=2, right AOP_LIT=0x03, siz
                            e=1
                      01599 ;;; /home/sdcc-builder/build/sdcc-build/orig/sdcc/src/pic14/genarith.c:159:genPlusIncr *{*
                      01600 ;; ***  genPlusIncr  161
                      01601 ;;      result AOP_REG, left AOP_REG, right AOP_LIT
                      01602 ;;      genPlusIncr  173
                      01603 ;;      adding lit to something. size 2
                      01604 ;;; /home/sdcc-builder/build/sdcc-build/orig/sdcc/src/pic14/genarith.c:286:genAddLit *{*
                      01605 ;; ***  genAddLit  287
                      01606 ;; hi = 0       genAddLit  351
                      01607 ;; >>> /home/sdcc-builder/build/sdcc-build/orig/sdcc/src/pic14/genarith.c:367:genAddLit
01B5   3003           01608         MOVLW   0x03
                      01609 ;; >>> /home/sdcc-builder/build/sdcc-build/orig/sdcc/src/pic14/genarith.c:368:genAddLit
                      01610 ;;      1126 rIdx = r0x104E 
01B6   07??           01611         ADDWF   r0x1012,F
                      01612 ;; >>> /home/sdcc-builder/build/sdcc-build/orig/sdcc/src/pic14/genarith.c:369:genAddLit
01B7   1803           01613         BTFSC   STATUS,0
                      01614 ;; >>> /home/sdcc-builder/build/sdcc-build/orig/sdcc/src/pic14/genarith.c:370:genAddLit
                      01615 ;;      1126 rIdx = r0x104F 
01B8   0A??           01616         INCF    r0x1013,F
gpasm-1.5.0 #1285 (Sep 12 2016) obj\Debug\PB.   7-19-2020  03:04:20         PAGE 32


LOC    OBJECT CODE    LINE  SOURCE TEXT
  VALUE

                      01617 ;; ***  addSign  1087
                      01618 ;;; /home/sdcc-builder/build/sdcc-build/orig/sdcc/src/pic14/genarith.c:1088:addSign *{*
                      01619 ;;; /home/sdcc-builder/build/sdcc-build/orig/sdcc/src/pic14/gen.c:2358:resultRemat *{*
                      01620 ;; ***  genPlus  707
                      01621 ;;; /home/sdcc-builder/build/sdcc-build/orig/sdcc/src/pic14/genarith.c:708:genPlus *{*
                      01622 ;;      708 register type nRegs=1
                      01623 ;;      589
                      01624 ;;      line = 714 result AOP_REG=r0x104B, size=1, left AOP_REG=r0x104B, size=1, right AOP_LIT=0x01, siz
                            e=1
                      01625 ;;; /home/sdcc-builder/build/sdcc-build/orig/sdcc/src/pic14/genarith.c:159:genPlusIncr *{*
                      01626 ;; ***  genPlusIncr  161
                      01627 ;;      result AOP_REG, left AOP_REG, right AOP_LIT
                      01628 ;;      genPlusIncr  173
                      01629 ;; >>> /home/sdcc-builder/build/sdcc-build/orig/sdcc/src/pic14/genarith.c:185:genPlusIncr
                      01630 ;;      1126 rIdx = r0x104B 
01B9   0A??           01631         INCF    r0x100F,F
                      01632 ;;; /home/sdcc-builder/build/sdcc-build/orig/sdcc/src/pic14/gen.c:2358:resultRemat *{*
                      01633 ;;; /home/sdcc-builder/build/sdcc-build/orig/sdcc/src/pic14/gen.c:3652:genCmpLt *{*
                      01634 ;; ***  genCmpLt  3653
                      01635 ;;      708 register type nRegs=1
                      01636 ;;; /home/sdcc-builder/build/sdcc-build/orig/sdcc/src/pic14/gen.c:3354:genCmp *{*
                      01637 ;;unsigned compare: left < lit(0x3=3), size=1
                      01638 ;; >>> /home/sdcc-builder/build/sdcc-build/orig/sdcc/src/pic14/gen.c:3325:pic14_mov2w_regOrLit
01BA   3003           01639         MOVLW   0x03
                      01640 ;; >>> /home/sdcc-builder/build/sdcc-build/orig/sdcc/src/pic14/gen.c:3492:genCmp
                      01641 ;;      1126 rIdx = r0x104B 
01BB   02??           01642         SUBWF   r0x100F,W
                      01643 ;;; /home/sdcc-builder/build/sdcc-build/orig/sdcc/src/pic14/gen.c:3297:genSkipc *{*
                      01644 ;; >>> /home/sdcc-builder/build/sdcc-build/orig/sdcc/src/pic14/gen.c:3304:genSkipc
01BC   1C03           01645         BTFSS   STATUS,0
                      01646 ;; >>> /home/sdcc-builder/build/sdcc-build/orig/sdcc/src/pic14/gen.c:3306:genSkipc
                      01647 ;; ***  popGetLabel  key=24, label offset 33
01BD   2???           01648         GOTO    _00157_DS_
                      01649 ;;genSkipc:3307: created from rifx:00000000047A57B0
                      01650 ;;; /home/sdcc-builder/build/sdcc-build/orig/sdcc/src/pic14/gen.c:2358:resultRemat *{*
                      01651 ;;; /home/sdcc-builder/build/sdcc-build/orig/sdcc/src/pic14/gen.c:2358:resultRemat *{*
                      01652 ;;; /home/sdcc-builder/build/sdcc-build/orig/sdcc/src/pic14/gen.c:2802:genLabel *{*
                      01653 ;; ***  genLabel  2805
                      01654 ;;; /home/sdcc-builder/build/sdcc-build/orig/sdcc/src/pic14/gen.c:2358:resultRemat *{*
                      01655 ;;; /home/sdcc-builder/build/sdcc-build/orig/sdcc/src/pic14/gen.c:2570:genEndFunction *{*
                      01656 ;; ***  genEndFunction  2572
                      01657         .line   127; "PB.c"     }
01BE   0008           01658         RETURN  
                      01659 ; exit point of _PB_Update
                      01660 ;;; /home/sdcc-builder/build/sdcc-build/orig/sdcc/src/pic14/gen.c:7710:genpic14Code *{*
                      01661 
                      01662 ;***
                      01663 ;  pBlock Stats: dbName = C
                      01664 ;***
                      01665 ;has an exit
                      01666 ;functions called:
                      01667 ;   _GPIO_InitPortPin
                      01668 ;   _GPIO_InitPortPin
gpasm-1.5.0 #1285 (Sep 12 2016) obj\Debug\PB.   7-19-2020  03:04:20         PAGE 33


LOC    OBJECT CODE    LINE  SOURCE TEXT
  VALUE

                      01669 ;   _GPIO_InitPortPin
                      01670 ;   _GPIO_InitPortPin
                      01671 ;   __muluchar
                      01672 ;   _GPIO_InitPortPin
                      01673 ;   _GPIO_InitPortPin
                      01674 ;   _GPIO_InitPortPin
                      01675 ;   _GPIO_InitPortPin
                      01676 ;   __muluchar
                      01677 ;7 compiler assigned registers:
                      01678 ;   r0x101B
                      01679 ;   STK00
                      01680 ;   r0x101C
                      01681 ;   STK01
                      01682 ;   r0x101D
                      01683 ;   r0x101E
                      01684 ;   r0x101F
                      01685 ;; Starting pCode block
                      01686 ;;; /home/sdcc-builder/build/sdcc-build/orig/sdcc/src/pic14/gen.c:2358:resultRemat *{*
                      01687 ;;; /home/sdcc-builder/build/sdcc-build/orig/sdcc/src/pic14/gen.c:2802:genLabel *{*
                      01688 ;; ***  genLabel  2805
                      01689 ;;; /home/sdcc-builder/build/sdcc-build/orig/sdcc/src/pic14/gen.c:2358:resultRemat *{*
                      01690 ;;; /home/sdcc-builder/build/sdcc-build/orig/sdcc/src/pic14/gen.c:2382:genFunction *{*
                      01691 ;; ***  genFunction  2384 curr label offset=0previous max_key=0 
                      01692 S_PB__PB_Init   code
0000                  01693 _PB_Init:
                      01694 ; 2 exit points
                      01695 ;;; /home/sdcc-builder/build/sdcc-build/orig/sdcc/src/pic14/gen.c:2358:resultRemat *{*
                      01696 ;;; /home/sdcc-builder/build/sdcc-build/orig/sdcc/src/pic14/gen.c:7642:genReceive *{*
                      01697 ;; ***  genReceive  7643
                      01698 ;;      708 register type nRegs=1
                      01699 ;;; /home/sdcc-builder/build/sdcc-build/orig/sdcc/src/pic14/gen.c:1929:assignResultValue *{*
                      01700 ;; ***  assignResultValue  1931
                      01701 ;;      line = 1933 result -=-, size=0, left AOP_REG=r0x1045, size=1, right -=-, size=0
                      01702 ;; >>> /home/sdcc-builder/build/sdcc-build/orig/sdcc/src/pic14/gen.c:1407:movwf
                      01703 ;;      1126 rIdx = r0x1045 
                      01704         .line   22; "PB.c"      void PB_Init(tPB pb, tPB_State initial_state)
0000   0??? 0???      01705         BANKSEL r0x101B
0002   00??           01706         MOVWF   r0x101B
                      01707 ;;; /home/sdcc-builder/build/sdcc-build/orig/sdcc/src/pic14/gen.c:2358:resultRemat *{*
                      01708 ;;; /home/sdcc-builder/build/sdcc-build/orig/sdcc/src/pic14/gen.c:7642:genReceive *{*
                      01709 ;; ***  genReceive  7643
                      01710 ;;      708 register type nRegs=1
                      01711 ;;; /home/sdcc-builder/build/sdcc-build/orig/sdcc/src/pic14/gen.c:1929:assignResultValue *{*
                      01712 ;; ***  assignResultValue  1931
                      01713 ;;      line = 1933 result -=-, size=0, left AOP_REG=r0x1046, size=1, right -=-, size=0
                      01714 ;; >>> /home/sdcc-builder/build/sdcc-build/orig/sdcc/src/pic14/gen.c:1437:get_returnvalue
                      01715 ;; ***  popRegFromIdx,1059  , rIdx=0x7f
0003   08??           01716         MOVF    STK00,W
                      01717 ;; >>> /home/sdcc-builder/build/sdcc-build/orig/sdcc/src/pic14/gen.c:1407:movwf
                      01718 ;;      1126 rIdx = r0x1046 
0004   00??           01719         MOVWF   r0x101C
                      01720 ;;; /home/sdcc-builder/build/sdcc-build/orig/sdcc/src/pic14/gen.c:2358:resultRemat *{*
                      01721 ;;; /home/sdcc-builder/build/sdcc-build/orig/sdcc/src/pic14/gen.c:3616:genCmpGt *{*
gpasm-1.5.0 #1285 (Sep 12 2016) obj\Debug\PB.   7-19-2020  03:04:20         PAGE 34


LOC    OBJECT CODE    LINE  SOURCE TEXT
  VALUE

                      01722 ;; ***  genCmpGt  3617
                      01723 ;;      708 register type nRegs=1
                      01724 ;;; /home/sdcc-builder/build/sdcc-build/orig/sdcc/src/pic14/gen.c:3354:genCmp *{*
                      01725 ;;swapping arguments (AOP_TYPEs 1/2)
                      01726 ;;unsigned compare: left >= lit(0x4=4), size=1
                      01727 ;; >>> /home/sdcc-builder/build/sdcc-build/orig/sdcc/src/pic14/gen.c:3325:pic14_mov2w_regOrLit
                      01728         .line   25; "PB.c"      switch(pb)
0005   3004           01729         MOVLW   0x04
                      01730 ;; >>> /home/sdcc-builder/build/sdcc-build/orig/sdcc/src/pic14/gen.c:3492:genCmp
                      01731 ;;      1126 rIdx = r0x1045 
0006   02??           01732         SUBWF   r0x101B,W
                      01733 ;;; /home/sdcc-builder/build/sdcc-build/orig/sdcc/src/pic14/gen.c:3297:genSkipc *{*
                      01734 ;; >>> /home/sdcc-builder/build/sdcc-build/orig/sdcc/src/pic14/gen.c:3302:genSkipc
0007   1803           01735         BTFSC   STATUS,0
                      01736 ;; >>> /home/sdcc-builder/build/sdcc-build/orig/sdcc/src/pic14/gen.c:3306:genSkipc
                      01737 ;; ***  popGetLabel  key=6, label offset 4
0008   2???           01738         GOTO    _00110_DS_
                      01739 ;;genSkipc:3307: created from rifx:00000000047A57B0
                      01740 ;;; /home/sdcc-builder/build/sdcc-build/orig/sdcc/src/pic14/gen.c:2358:resultRemat *{*
                      01741 ;;; /home/sdcc-builder/build/sdcc-build/orig/sdcc/src/pic14/gen.c:2358:resultRemat *{*
                      01742 ;;; /home/sdcc-builder/build/sdcc-build/orig/sdcc/src/pic14/gen.c:7337:genJumpTab *{*
                      01743 ;; ***  genJumpTab  7338
                      01744 ;;      708 register type nRegs=1
                      01745 ;; >>> /home/sdcc-builder/build/sdcc-build/orig/sdcc/src/pic14/gen.c:7353:genJumpTab
                      01746 ;; ***  popGetLabel  key=23, label offset 4
0009   30??           01747         MOVLW   HIGH(_00127_DS_)
                      01748 ;; >>> /home/sdcc-builder/build/sdcc-build/orig/sdcc/src/pic14/gen.c:7354:genJumpTab
000A   1283 1303      01749         BANKSEL PCLATH
000C   008A           01750         MOVWF   PCLATH
                      01751 ;; >>> /home/sdcc-builder/build/sdcc-build/orig/sdcc/src/pic14/gen.c:7355:genJumpTab
                      01752 ;; ***  popGetLabel  key=23, label offset 4
000D   30??           01753         MOVLW   _00127_DS_
                      01754 ;; >>> /home/sdcc-builder/build/sdcc-build/orig/sdcc/src/pic14/gen.c:7356:genJumpTab
                      01755 ;;      1126 rIdx = r0x1045 
000E   0??? 0???      01756         BANKSEL r0x101B
0010   07??           01757         ADDWF   r0x101B,W
                      01758 ;; >>> /home/sdcc-builder/build/sdcc-build/orig/sdcc/src/pic14/gen.c:7357:genJumpTab
0011   1C03           01759         BTFSS   STATUS,0
0012   2???           01760         GOTO    _00003_DS_
                      01761 ;; >>> /home/sdcc-builder/build/sdcc-build/orig/sdcc/src/pic14/gen.c:7358:genJumpTab
0013   1283 1303      01762         BANKSEL PCLATH
0015   0A8A           01763         INCF    PCLATH,F
                      01764 ;; >>> /home/sdcc-builder/build/sdcc-build/orig/sdcc/src/pic14/gen.c:7359:genJumpTab
0016                  01765 _00003_DS_:
0016   0082           01766         MOVWF   PCL
                      01767 ;; >>> /home/sdcc-builder/build/sdcc-build/orig/sdcc/src/pic14/gen.c:7368:genJumpTab
                      01768 ;; ***  popGetLabel  key=1, label offset 4
0017                  01769 _00127_DS_:
0017   2???           01770         GOTO    _00105_DS_
                      01771 ;; >>> /home/sdcc-builder/build/sdcc-build/orig/sdcc/src/pic14/gen.c:7368:genJumpTab
                      01772 ;; ***  popGetLabel  key=2, label offset 4
0018   2???           01773         GOTO    _00106_DS_
                      01774 ;; >>> /home/sdcc-builder/build/sdcc-build/orig/sdcc/src/pic14/gen.c:7368:genJumpTab
gpasm-1.5.0 #1285 (Sep 12 2016) obj\Debug\PB.   7-19-2020  03:04:20         PAGE 35


LOC    OBJECT CODE    LINE  SOURCE TEXT
  VALUE

                      01775 ;; ***  popGetLabel  key=3, label offset 4
0019   2???           01776         GOTO    _00107_DS_
                      01777 ;; >>> /home/sdcc-builder/build/sdcc-build/orig/sdcc/src/pic14/gen.c:7368:genJumpTab
                      01778 ;; ***  popGetLabel  key=4, label offset 4
001A   2???           01779         GOTO    _00108_DS_
                      01780 ;;; /home/sdcc-builder/build/sdcc-build/orig/sdcc/src/pic14/gen.c:2358:resultRemat *{*
                      01781 ;;; /home/sdcc-builder/build/sdcc-build/orig/sdcc/src/pic14/gen.c:2802:genLabel *{*
                      01782 ;; ***  genLabel  2805
                      01783 ;;; /home/sdcc-builder/build/sdcc-build/orig/sdcc/src/pic14/gen.c:2358:resultRemat *{*
                      01784 ;;; /home/sdcc-builder/build/sdcc-build/orig/sdcc/src/pic14/gen.c:2358:resultRemat *{*
                      01785 ;;; /home/sdcc-builder/build/sdcc-build/orig/sdcc/src/pic14/gen.c:2358:resultRemat *{*
                      01786 ;;; /home/sdcc-builder/build/sdcc-build/orig/sdcc/src/pic14/gen.c:2358:resultRemat *{*
                      01787 ;;; /home/sdcc-builder/build/sdcc-build/orig/sdcc/src/pic14/gen.c:2108:genCall *{*
                      01788 ;; ***  genCall  2110
                      01789 ;;      2158 left AOP_LIT
                      01790 ;;; /home/sdcc-builder/build/sdcc-build/orig/sdcc/src/pic14/gen.c:1357:mov2w_op *{*
                      01791 ;; >>> /home/sdcc-builder/build/sdcc-build/orig/sdcc/src/pic14/gen.c:1375:mov2w_op
001B                  01792 _00105_DS_:
                      01793         .line   28; "PB.c"      GPIO_InitPortPin(PB_PLUS_PORT, PB_PLUS_PIN, GPIO_IN);
001B   3001           01794         MOVLW   0x01
                      01795 ;;      2158 left AOP_LIT
                      01796 ;; >>> /home/sdcc-builder/build/sdcc-build/orig/sdcc/src/pic14/gen.c:2166:genCall
                      01797 ;; ***  popRegFromIdx,1059  , rIdx=0x7e
001C   00??           01798         MOVWF   STK01
                      01799 ;;; /home/sdcc-builder/build/sdcc-build/orig/sdcc/src/pic14/gen.c:1357:mov2w_op *{*
                      01800 ;; >>> /home/sdcc-builder/build/sdcc-build/orig/sdcc/src/pic14/gen.c:1375:mov2w_op
001D   3000           01801         MOVLW   0x00
                      01802 ;;      2158 left AOP_LIT
                      01803 ;; >>> /home/sdcc-builder/build/sdcc-build/orig/sdcc/src/pic14/gen.c:2166:genCall
                      01804 ;; ***  popRegFromIdx,1059  , rIdx=0x7f
001E   00??           01805         MOVWF   STK00
                      01806 ;;; /home/sdcc-builder/build/sdcc-build/orig/sdcc/src/pic14/gen.c:1357:mov2w_op *{*
                      01807 ;; >>> /home/sdcc-builder/build/sdcc-build/orig/sdcc/src/pic14/gen.c:1375:mov2w_op
001F   3001           01808         MOVLW   0x01
                      01809 ;; >>> /home/sdcc-builder/build/sdcc-build/orig/sdcc/src/pic14/gen.c:2207:genCall
0020   0??? 0???      01810         PAGESEL _GPIO_InitPortPin
                      01811 ;; >>> /home/sdcc-builder/build/sdcc-build/orig/sdcc/src/pic14/gen.c:2215:genCall
0022   2???           01812         CALL    _GPIO_InitPortPin
                      01813 ;; >>> /home/sdcc-builder/build/sdcc-build/orig/sdcc/src/pic14/gen.c:2223:genCall
0023   0??? 0???      01814         PAGESEL $
                      01815 ;;; /home/sdcc-builder/build/sdcc-build/orig/sdcc/src/pic14/gen.c:2358:resultRemat *{*
                      01816 ;;; /home/sdcc-builder/build/sdcc-build/orig/sdcc/src/pic14/gen.c:2820:genGoto *{*
                      01817 ;; >>> /home/sdcc-builder/build/sdcc-build/orig/sdcc/src/pic14/gen.c:2822:genGoto
                      01818 ;; ***  popGetLabel  key=6, label offset 4
                      01819         .line   29; "PB.c"      break;
0025   2???           01820         GOTO    _00110_DS_
                      01821 ;;; /home/sdcc-builder/build/sdcc-build/orig/sdcc/src/pic14/gen.c:2358:resultRemat *{*
                      01822 ;;; /home/sdcc-builder/build/sdcc-build/orig/sdcc/src/pic14/gen.c:2802:genLabel *{*
                      01823 ;; ***  genLabel  2805
                      01824 ;;; /home/sdcc-builder/build/sdcc-build/orig/sdcc/src/pic14/gen.c:2358:resultRemat *{*
                      01825 ;;; /home/sdcc-builder/build/sdcc-build/orig/sdcc/src/pic14/gen.c:2358:resultRemat *{*
                      01826 ;;; /home/sdcc-builder/build/sdcc-build/orig/sdcc/src/pic14/gen.c:2358:resultRemat *{*
                      01827 ;;; /home/sdcc-builder/build/sdcc-build/orig/sdcc/src/pic14/gen.c:2358:resultRemat *{*
gpasm-1.5.0 #1285 (Sep 12 2016) obj\Debug\PB.   7-19-2020  03:04:20         PAGE 36


LOC    OBJECT CODE    LINE  SOURCE TEXT
  VALUE

                      01828 ;;; /home/sdcc-builder/build/sdcc-build/orig/sdcc/src/pic14/gen.c:2108:genCall *{*
                      01829 ;; ***  genCall  2110
                      01830 ;;      2158 left AOP_LIT
                      01831 ;;; /home/sdcc-builder/build/sdcc-build/orig/sdcc/src/pic14/gen.c:1357:mov2w_op *{*
                      01832 ;; >>> /home/sdcc-builder/build/sdcc-build/orig/sdcc/src/pic14/gen.c:1375:mov2w_op
0026                  01833 _00106_DS_:
                      01834         .line   31; "PB.c"      GPIO_InitPortPin(PB_MINUS_PORT, PB_MINUS_PIN, GPIO_IN);
0026   3001           01835         MOVLW   0x01
                      01836 ;;      2158 left AOP_LIT
                      01837 ;; >>> /home/sdcc-builder/build/sdcc-build/orig/sdcc/src/pic14/gen.c:2166:genCall
                      01838 ;; ***  popRegFromIdx,1059  , rIdx=0x7e
0027   00??           01839         MOVWF   STK01
                      01840 ;;; /home/sdcc-builder/build/sdcc-build/orig/sdcc/src/pic14/gen.c:1357:mov2w_op *{*
                      01841 ;; >>> /home/sdcc-builder/build/sdcc-build/orig/sdcc/src/pic14/gen.c:1375:mov2w_op
0028   3001           01842         MOVLW   0x01
                      01843 ;;      2158 left AOP_LIT
                      01844 ;; >>> /home/sdcc-builder/build/sdcc-build/orig/sdcc/src/pic14/gen.c:2166:genCall
                      01845 ;; ***  popRegFromIdx,1059  , rIdx=0x7f
0029   00??           01846         MOVWF   STK00
                      01847 ;;; /home/sdcc-builder/build/sdcc-build/orig/sdcc/src/pic14/gen.c:1357:mov2w_op *{*
                      01848 ;; >>> /home/sdcc-builder/build/sdcc-build/orig/sdcc/src/pic14/gen.c:1375:mov2w_op
002A   3001           01849         MOVLW   0x01
                      01850 ;; >>> /home/sdcc-builder/build/sdcc-build/orig/sdcc/src/pic14/gen.c:2207:genCall
002B   0??? 0???      01851         PAGESEL _GPIO_InitPortPin
                      01852 ;; >>> /home/sdcc-builder/build/sdcc-build/orig/sdcc/src/pic14/gen.c:2215:genCall
002D   2???           01853         CALL    _GPIO_InitPortPin
                      01854 ;; >>> /home/sdcc-builder/build/sdcc-build/orig/sdcc/src/pic14/gen.c:2223:genCall
002E   0??? 0???      01855         PAGESEL $
                      01856 ;;; /home/sdcc-builder/build/sdcc-build/orig/sdcc/src/pic14/gen.c:2358:resultRemat *{*
                      01857 ;;; /home/sdcc-builder/build/sdcc-build/orig/sdcc/src/pic14/gen.c:2820:genGoto *{*
                      01858 ;; >>> /home/sdcc-builder/build/sdcc-build/orig/sdcc/src/pic14/gen.c:2822:genGoto
                      01859 ;; ***  popGetLabel  key=6, label offset 4
                      01860         .line   32; "PB.c"      break;
0030   2???           01861         GOTO    _00110_DS_
                      01862 ;;; /home/sdcc-builder/build/sdcc-build/orig/sdcc/src/pic14/gen.c:2358:resultRemat *{*
                      01863 ;;; /home/sdcc-builder/build/sdcc-build/orig/sdcc/src/pic14/gen.c:2802:genLabel *{*
                      01864 ;; ***  genLabel  2805
                      01865 ;;; /home/sdcc-builder/build/sdcc-build/orig/sdcc/src/pic14/gen.c:2358:resultRemat *{*
                      01866 ;;; /home/sdcc-builder/build/sdcc-build/orig/sdcc/src/pic14/gen.c:2358:resultRemat *{*
                      01867 ;;; /home/sdcc-builder/build/sdcc-build/orig/sdcc/src/pic14/gen.c:2358:resultRemat *{*
                      01868 ;;; /home/sdcc-builder/build/sdcc-build/orig/sdcc/src/pic14/gen.c:2358:resultRemat *{*
                      01869 ;;; /home/sdcc-builder/build/sdcc-build/orig/sdcc/src/pic14/gen.c:2108:genCall *{*
                      01870 ;; ***  genCall  2110
                      01871 ;;      2158 left AOP_LIT
                      01872 ;;; /home/sdcc-builder/build/sdcc-build/orig/sdcc/src/pic14/gen.c:1357:mov2w_op *{*
                      01873 ;; >>> /home/sdcc-builder/build/sdcc-build/orig/sdcc/src/pic14/gen.c:1375:mov2w_op
0031                  01874 _00107_DS_:
                      01875         .line   34; "PB.c"      GPIO_InitPortPin(PB_ON_OFF_PORT, PB_ON_OFF_PIN, GPIO_IN);
0031   3001           01876         MOVLW   0x01
                      01877 ;;      2158 left AOP_LIT
                      01878 ;; >>> /home/sdcc-builder/build/sdcc-build/orig/sdcc/src/pic14/gen.c:2166:genCall
                      01879 ;; ***  popRegFromIdx,1059  , rIdx=0x7e
0032   00??           01880         MOVWF   STK01
gpasm-1.5.0 #1285 (Sep 12 2016) obj\Debug\PB.   7-19-2020  03:04:20         PAGE 37


LOC    OBJECT CODE    LINE  SOURCE TEXT
  VALUE

                      01881 ;;; /home/sdcc-builder/build/sdcc-build/orig/sdcc/src/pic14/gen.c:1357:mov2w_op *{*
                      01882 ;; >>> /home/sdcc-builder/build/sdcc-build/orig/sdcc/src/pic14/gen.c:1375:mov2w_op
0033   3002           01883         MOVLW   0x02
                      01884 ;;      2158 left AOP_LIT
                      01885 ;; >>> /home/sdcc-builder/build/sdcc-build/orig/sdcc/src/pic14/gen.c:2166:genCall
                      01886 ;; ***  popRegFromIdx,1059  , rIdx=0x7f
0034   00??           01887         MOVWF   STK00
                      01888 ;;; /home/sdcc-builder/build/sdcc-build/orig/sdcc/src/pic14/gen.c:1357:mov2w_op *{*
                      01889 ;; >>> /home/sdcc-builder/build/sdcc-build/orig/sdcc/src/pic14/gen.c:1375:mov2w_op
0035   3001           01890         MOVLW   0x01
                      01891 ;; >>> /home/sdcc-builder/build/sdcc-build/orig/sdcc/src/pic14/gen.c:2207:genCall
0036   0??? 0???      01892         PAGESEL _GPIO_InitPortPin
                      01893 ;; >>> /home/sdcc-builder/build/sdcc-build/orig/sdcc/src/pic14/gen.c:2215:genCall
0038   2???           01894         CALL    _GPIO_InitPortPin
                      01895 ;; >>> /home/sdcc-builder/build/sdcc-build/orig/sdcc/src/pic14/gen.c:2223:genCall
0039   0??? 0???      01896         PAGESEL $
                      01897 ;;; /home/sdcc-builder/build/sdcc-build/orig/sdcc/src/pic14/gen.c:2358:resultRemat *{*
                      01898 ;;; /home/sdcc-builder/build/sdcc-build/orig/sdcc/src/pic14/gen.c:2820:genGoto *{*
                      01899 ;; >>> /home/sdcc-builder/build/sdcc-build/orig/sdcc/src/pic14/gen.c:2822:genGoto
                      01900 ;; ***  popGetLabel  key=6, label offset 4
                      01901         .line   35; "PB.c"      break;
003B   2???           01902         GOTO    _00110_DS_
                      01903 ;;; /home/sdcc-builder/build/sdcc-build/orig/sdcc/src/pic14/gen.c:2358:resultRemat *{*
                      01904 ;;; /home/sdcc-builder/build/sdcc-build/orig/sdcc/src/pic14/gen.c:2802:genLabel *{*
                      01905 ;; ***  genLabel  2805
                      01906 ;;; /home/sdcc-builder/build/sdcc-build/orig/sdcc/src/pic14/gen.c:2358:resultRemat *{*
                      01907 ;;; /home/sdcc-builder/build/sdcc-build/orig/sdcc/src/pic14/gen.c:2358:resultRemat *{*
                      01908 ;;; /home/sdcc-builder/build/sdcc-build/orig/sdcc/src/pic14/gen.c:2358:resultRemat *{*
                      01909 ;;; /home/sdcc-builder/build/sdcc-build/orig/sdcc/src/pic14/gen.c:2358:resultRemat *{*
                      01910 ;;; /home/sdcc-builder/build/sdcc-build/orig/sdcc/src/pic14/gen.c:2108:genCall *{*
                      01911 ;; ***  genCall  2110
                      01912 ;;      2158 left AOP_LIT
                      01913 ;;; /home/sdcc-builder/build/sdcc-build/orig/sdcc/src/pic14/gen.c:1357:mov2w_op *{*
                      01914 ;; >>> /home/sdcc-builder/build/sdcc-build/orig/sdcc/src/pic14/gen.c:1375:mov2w_op
003C                  01915 _00108_DS_:
                      01916         .line   37; "PB.c"      GPIO_InitPortPin(PORT_B, 3, GPIO_IN);
003C   3001           01917         MOVLW   0x01
                      01918 ;;      2158 left AOP_LIT
                      01919 ;; >>> /home/sdcc-builder/build/sdcc-build/orig/sdcc/src/pic14/gen.c:2166:genCall
                      01920 ;; ***  popRegFromIdx,1059  , rIdx=0x7e
003D   00??           01921         MOVWF   STK01
                      01922 ;;; /home/sdcc-builder/build/sdcc-build/orig/sdcc/src/pic14/gen.c:1357:mov2w_op *{*
                      01923 ;; >>> /home/sdcc-builder/build/sdcc-build/orig/sdcc/src/pic14/gen.c:1375:mov2w_op
003E   3003           01924         MOVLW   0x03
                      01925 ;;      2158 left AOP_LIT
                      01926 ;; >>> /home/sdcc-builder/build/sdcc-build/orig/sdcc/src/pic14/gen.c:2166:genCall
                      01927 ;; ***  popRegFromIdx,1059  , rIdx=0x7f
003F   00??           01928         MOVWF   STK00
                      01929 ;;; /home/sdcc-builder/build/sdcc-build/orig/sdcc/src/pic14/gen.c:1357:mov2w_op *{*
                      01930 ;; >>> /home/sdcc-builder/build/sdcc-build/orig/sdcc/src/pic14/gen.c:1375:mov2w_op
0040   3001           01931         MOVLW   0x01
                      01932 ;; >>> /home/sdcc-builder/build/sdcc-build/orig/sdcc/src/pic14/gen.c:2207:genCall
0041   0??? 0???      01933         PAGESEL _GPIO_InitPortPin
gpasm-1.5.0 #1285 (Sep 12 2016) obj\Debug\PB.   7-19-2020  03:04:20         PAGE 38


LOC    OBJECT CODE    LINE  SOURCE TEXT
  VALUE

                      01934 ;; >>> /home/sdcc-builder/build/sdcc-build/orig/sdcc/src/pic14/gen.c:2215:genCall
0043   2???           01935         CALL    _GPIO_InitPortPin
                      01936 ;; >>> /home/sdcc-builder/build/sdcc-build/orig/sdcc/src/pic14/gen.c:2223:genCall
0044   0??? 0???      01937         PAGESEL $
                      01938 ;;; /home/sdcc-builder/build/sdcc-build/orig/sdcc/src/pic14/gen.c:2358:resultRemat *{*
                      01939 ;;; /home/sdcc-builder/build/sdcc-build/orig/sdcc/src/pic14/gen.c:2802:genLabel *{*
                      01940 ;; ***  genLabel  2805
                      01941 ;;; /home/sdcc-builder/build/sdcc-build/orig/sdcc/src/pic14/gen.c:2358:resultRemat *{*
                      01942 ;;; /home/sdcc-builder/build/sdcc-build/orig/sdcc/src/pic14/gen.c:2358:resultRemat *{*
                      01943 ;;; /home/sdcc-builder/build/sdcc-build/orig/sdcc/src/pic14/gen.c:2358:resultRemat *{*
                      01944 ;;; /home/sdcc-builder/build/sdcc-build/orig/sdcc/src/pic14/gen.c:2358:resultRemat *{*
                      01945 ;;; /home/sdcc-builder/build/sdcc-build/orig/sdcc/src/pic14/gen.c:2108:genCall *{*
                      01946 ;; ***  genCall  2110
                      01947 ;;      708 register type nRegs=1
                      01948 ;;      2158 left AOP_LIT
                      01949 ;;; /home/sdcc-builder/build/sdcc-build/orig/sdcc/src/pic14/gen.c:1357:mov2w_op *{*
                      01950 ;; >>> /home/sdcc-builder/build/sdcc-build/orig/sdcc/src/pic14/gen.c:1375:mov2w_op
0046                  01951 _00110_DS_:
                      01952         .line   45; "PB.c"      pb_info[pb].state = initial_state;
0046   3003           01953         MOVLW   0x03
                      01954 ;;      708 register type nRegs=1
                      01955 ;;      2158 left AOP_REG
                      01956 ;; >>> /home/sdcc-builder/build/sdcc-build/orig/sdcc/src/pic14/gen.c:2166:genCall
                      01957 ;; ***  popRegFromIdx,1059  , rIdx=0x7f
0047   00??           01958         MOVWF   STK00
                      01959 ;;; /home/sdcc-builder/build/sdcc-build/orig/sdcc/src/pic14/gen.c:1357:mov2w_op *{*
                      01960 ;; ***  mov2w  1395  offset=0
                      01961 ;; >>> /home/sdcc-builder/build/sdcc-build/orig/sdcc/src/pic14/gen.c:1400:mov2w
                      01962 ;;      1126 rIdx = r0x1045 
0048   0??? 0???      01963         BANKSEL r0x101B
004A   08??           01964         MOVF    r0x101B,W
                      01965 ;; >>> /home/sdcc-builder/build/sdcc-build/orig/sdcc/src/pic14/gen.c:2207:genCall
004B   0??? 0???      01966         PAGESEL __muluchar
                      01967 ;; >>> /home/sdcc-builder/build/sdcc-build/orig/sdcc/src/pic14/gen.c:2215:genCall
004D   2???           01968         CALL    __muluchar
                      01969 ;; >>> /home/sdcc-builder/build/sdcc-build/orig/sdcc/src/pic14/gen.c:2223:genCall
004E   0??? 0???      01970         PAGESEL $
                      01971 ;;      708 register type nRegs=2
                      01972 ;;; /home/sdcc-builder/build/sdcc-build/orig/sdcc/src/pic14/gen.c:1929:assignResultValue *{*
                      01973 ;; ***  assignResultValue  1931
                      01974 ;;      line = 1933 result -=-, size=0, left AOP_REG=r0x1045, size=2, right -=-, size=0
                      01975 ;; >>> /home/sdcc-builder/build/sdcc-build/orig/sdcc/src/pic14/gen.c:1407:movwf
                      01976 ;;      1126 rIdx = r0x1047 
0050   0??? 0???      01977         BANKSEL r0x101D
0052   00??           01978         MOVWF   r0x101D
                      01979 ;; >>> /home/sdcc-builder/build/sdcc-build/orig/sdcc/src/pic14/gen.c:1437:get_returnvalue
                      01980 ;; ***  popRegFromIdx,1059  , rIdx=0x7f
0053   08??           01981         MOVF    STK00,W
                      01982 ;; >>> /home/sdcc-builder/build/sdcc-build/orig/sdcc/src/pic14/gen.c:1407:movwf
                      01983 ;;      1126 rIdx = r0x1045 
0054   00??           01984         MOVWF   r0x101B
0055   3E??           01985         ADDLW   (_pb_info + 0)
                      01986 ;; >>> /home/sdcc-builder/build/sdcc-build/orig/sdcc/src/pic14/genarith.c:833:genPlus
gpasm-1.5.0 #1285 (Sep 12 2016) obj\Debug\PB.   7-19-2020  03:04:20         PAGE 39


LOC    OBJECT CODE    LINE  SOURCE TEXT
  VALUE

                      01987 ;;      1126 rIdx = r0x1045 
0056   00??           01988         MOVWF   r0x101B
                      01989 ;; >>> /home/sdcc-builder/build/sdcc-build/orig/sdcc/src/pic14/genarith.c:849:genPlus
                      01990 ;;      1126 rIdx = r0x1047 
0057   08??           01991         MOVF    r0x101D,W
                      01992 ;; >>> /home/sdcc-builder/build/sdcc-build/orig/sdcc/src/pic14/genarith.c:850:genPlus
0058   1803           01993         BTFSC   STATUS,0
                      01994 ;; >>> /home/sdcc-builder/build/sdcc-build/orig/sdcc/src/pic14/genarith.c:851:genPlus
                      01995 ;;      1126 rIdx = r0x1047 
0059   0F??           01996         INCFSZ  r0x101D,W
                      01997 ;; >>> /home/sdcc-builder/build/sdcc-build/orig/sdcc/src/pic14/genarith.c:852:genPlus
005A   3E??           01998         ADDLW   high (_pb_info + 0)
                      01999 ;; >>> /home/sdcc-builder/build/sdcc-build/orig/sdcc/src/pic14/genarith.c:853:genPlus
                      02000 ;;      1126 rIdx = r0x1047 
005B   00??           02001         MOVWF   r0x101D
                      02002 ;;; /home/sdcc-builder/build/sdcc-build/orig/sdcc/src/pic14/gen.c:2358:resultRemat *{*
                      02003 ;; ***  genPlus  707
                      02004 ;;; /home/sdcc-builder/build/sdcc-build/orig/sdcc/src/pic14/genarith.c:708:genPlus *{*
                      02005 ;;      708 register type nRegs=2
                      02006 ;;      708 register type nRegs=2
                      02007 ;;      line = 714 result AOP_REG=r0x1048, size=2, left AOP_REG=r0x1045, size=2, right AOP_LIT=0x02, siz
                            e=1
                      02008 ;;; /home/sdcc-builder/build/sdcc-build/orig/sdcc/src/pic14/genarith.c:159:genPlusIncr *{*
                      02009 ;; ***  genPlusIncr  161
                      02010 ;;      result AOP_REG, left AOP_REG, right AOP_LIT
                      02011 ;;      genPlusIncr  173
                      02012 ;;      genPlusIncr  197
                      02013 ;;      adding lit to something. size 2
                      02014 ;;; /home/sdcc-builder/build/sdcc-build/orig/sdcc/src/pic14/genarith.c:286:genAddLit *{*
                      02015 ;; ***  genAddLit  287
                      02016 ;;  left and result aren't same genAddLit  537
                      02017 ;; >>> /home/sdcc-builder/build/sdcc-build/orig/sdcc/src/pic14/genarith.c:601:genAddLit
005C   3002           02018         MOVLW   0x02
                      02019 ;; >>> /home/sdcc-builder/build/sdcc-build/orig/sdcc/src/pic14/genarith.c:602:genAddLit
                      02020 ;;      1126 rIdx = r0x1045 
005D   07??           02021         ADDWF   r0x101B,W
                      02022 ;;; /home/sdcc-builder/build/sdcc-build/orig/sdcc/src/pic14/genarith.c:270:emitMOVWF *{*
                      02023 ;; >>> /home/sdcc-builder/build/sdcc-build/orig/sdcc/src/pic14/genarith.c:274:emitMOVWF
                      02024 ;;      1126 rIdx = r0x1048 
005E   00??           02025         MOVWF   r0x101E
                      02026 ;; >>> /home/sdcc-builder/build/sdcc-build/orig/sdcc/src/pic14/genarith.c:677:genAddLit
                      02027 ;;      1126 rIdx = r0x1049 
005F   01??           02028         CLRF    r0x101F
                      02029 ;; >>> /home/sdcc-builder/build/sdcc-build/orig/sdcc/src/pic14/genarith.c:678:genAddLit
                      02030 ;;      1126 rIdx = r0x1049 
0060   0D??           02031         RLF     r0x101F,F
                      02032 ;; >>> /home/sdcc-builder/build/sdcc-build/orig/sdcc/src/pic14/genarith.c:679:genAddLit
                      02033 ;;      1126 rIdx = r0x1047 
0061   08??           02034         MOVF    r0x101D,W
                      02035 ;; >>> /home/sdcc-builder/build/sdcc-build/orig/sdcc/src/pic14/genarith.c:680:genAddLit
                      02036 ;;      1126 rIdx = r0x1049 
0062   07??           02037         ADDWF   r0x101F,F
                      02038 ;; ***  addSign  1087
gpasm-1.5.0 #1285 (Sep 12 2016) obj\Debug\PB.   7-19-2020  03:04:20         PAGE 40


LOC    OBJECT CODE    LINE  SOURCE TEXT
  VALUE

                      02039 ;;; /home/sdcc-builder/build/sdcc-build/orig/sdcc/src/pic14/genarith.c:1088:addSign *{*
                      02040 ;;; /home/sdcc-builder/build/sdcc-build/orig/sdcc/src/pic14/gen.c:2358:resultRemat *{*
                      02041 ;;; /home/sdcc-builder/build/sdcc-build/orig/sdcc/src/pic14/gen.c:6951:genPointerSet *{*
                      02042 ;; ***  genPointerSet  6952
                      02043 ;;; /home/sdcc-builder/build/sdcc-build/orig/sdcc/src/pic14/gen.c:6871:genNearPointerSet *{*
                      02044 ;; ***  genNearPointerSet  6872
                      02045 ;;      708 register type nRegs=2
                      02046 ;; ***  genNearPointerSet  6886
                      02047 ;;      708 register type nRegs=1
                      02048 ;;      line = 6888 result AOP_REG=r0x1048, size=2, left -=-, size=0, right AOP_REG=r0x1046, size=1
                      02049 ;;; /home/sdcc-builder/build/sdcc-build/orig/sdcc/src/pic14/gen.c:1357:mov2w_op *{*
                      02050 ;; ***  mov2w  1395  offset=0
                      02051 ;; >>> /home/sdcc-builder/build/sdcc-build/orig/sdcc/src/pic14/gen.c:1400:mov2w
                      02052 ;;      1126 rIdx = r0x1048 
0063   08??           02053         MOVF    r0x101E,W
                      02054 ;; >>> /home/sdcc-builder/build/sdcc-build/orig/sdcc/src/pic14/gen.c:5851:setup_fsr
0064   1283 1303      02055         BANKSEL FSR
0066   0084           02056         MOVWF   FSR
                      02057 ;;; /home/sdcc-builder/build/sdcc-build/orig/sdcc/src/pic14/gen.c:5802:SetIrp *{*
                      02058 ;; >>> /home/sdcc-builder/build/sdcc-build/orig/sdcc/src/pic14/gen.c:5829:SetIrp
0067   1383           02059         BCF     STATUS,7
                      02060 ;; >>> /home/sdcc-builder/build/sdcc-build/orig/sdcc/src/pic14/gen.c:5832:SetIrp
0068   0??? 0???      02061         BANKSEL r0x101F
006A   18??           02062         BTFSC   r0x101F,0
                      02063 ;; >>> /home/sdcc-builder/build/sdcc-build/orig/sdcc/src/pic14/gen.c:5833:SetIrp
006B   1783           02064         BSF     STATUS,7
                      02065 ;; >>> /home/sdcc-builder/build/sdcc-build/orig/sdcc/src/pic14/gen.c:6638:emitPtrPut
                      02066 ;;      1126 rIdx = r0x1046 
006C   08??           02067         MOVF    r0x101C,W
                      02068 ;; >>> /home/sdcc-builder/build/sdcc-build/orig/sdcc/src/pic14/gen.c:6639:emitPtrPut
006D   1283 1303      02069         BANKSEL INDF
006F   0080           02070         MOVWF   INDF
                      02071 ;; ***  genNearPointerSet  6905
                      02072 ;;; /home/sdcc-builder/build/sdcc-build/orig/sdcc/src/pic14/gen.c:2358:resultRemat *{*
                      02073 ;;; /home/sdcc-builder/build/sdcc-build/orig/sdcc/src/pic14/gen.c:3616:genCmpGt *{*
                      02074 ;; ***  genCmpGt  3617
                      02075 ;;      708 register type nRegs=1
                      02076 ;;; /home/sdcc-builder/build/sdcc-build/orig/sdcc/src/pic14/gen.c:3354:genCmp *{*
                      02077 ;;swapping arguments (AOP_TYPEs 1/2)
                      02078 ;;unsigned compare: left >= lit(0x4=4), size=1
                      02079 ;; >>> /home/sdcc-builder/build/sdcc-build/orig/sdcc/src/pic14/gen.c:3325:pic14_mov2w_regOrLit
                      02080         .line   48; "PB.c"      switch (initial_state)
0070   3004           02081         MOVLW   0x04
                      02082 ;; >>> /home/sdcc-builder/build/sdcc-build/orig/sdcc/src/pic14/gen.c:3492:genCmp
                      02083 ;;      1126 rIdx = r0x1046 
0071   0??? 0???      02084         BANKSEL r0x101C
0073   02??           02085         SUBWF   r0x101C,W
                      02086 ;;; /home/sdcc-builder/build/sdcc-build/orig/sdcc/src/pic14/gen.c:3297:genSkipc *{*
                      02087 ;; >>> /home/sdcc-builder/build/sdcc-build/orig/sdcc/src/pic14/gen.c:3302:genSkipc
0074   1803           02088         BTFSC   STATUS,0
                      02089 ;; >>> /home/sdcc-builder/build/sdcc-build/orig/sdcc/src/pic14/gen.c:3306:genSkipc
                      02090 ;; ***  popGetLabel  key=12, label offset 4
0075   2???           02091         GOTO    _00116_DS_
gpasm-1.5.0 #1285 (Sep 12 2016) obj\Debug\PB.   7-19-2020  03:04:20         PAGE 41


LOC    OBJECT CODE    LINE  SOURCE TEXT
  VALUE

                      02092 ;;genSkipc:3307: created from rifx:00000000047A57B0
                      02093 ;;; /home/sdcc-builder/build/sdcc-build/orig/sdcc/src/pic14/gen.c:2358:resultRemat *{*
                      02094 ;;; /home/sdcc-builder/build/sdcc-build/orig/sdcc/src/pic14/gen.c:2358:resultRemat *{*
                      02095 ;;; /home/sdcc-builder/build/sdcc-build/orig/sdcc/src/pic14/gen.c:7337:genJumpTab *{*
                      02096 ;; ***  genJumpTab  7338
                      02097 ;;      708 register type nRegs=1
                      02098 ;; >>> /home/sdcc-builder/build/sdcc-build/orig/sdcc/src/pic14/gen.c:7353:genJumpTab
                      02099 ;; ***  popGetLabel  key=25, label offset 4
0076   30??           02100         MOVLW   HIGH(_00129_DS_)
                      02101 ;; >>> /home/sdcc-builder/build/sdcc-build/orig/sdcc/src/pic14/gen.c:7354:genJumpTab
0077   1283 1303      02102         BANKSEL PCLATH
0079   008A           02103         MOVWF   PCLATH
                      02104 ;; >>> /home/sdcc-builder/build/sdcc-build/orig/sdcc/src/pic14/gen.c:7355:genJumpTab
                      02105 ;; ***  popGetLabel  key=25, label offset 4
007A   30??           02106         MOVLW   _00129_DS_
                      02107 ;; >>> /home/sdcc-builder/build/sdcc-build/orig/sdcc/src/pic14/gen.c:7356:genJumpTab
                      02108 ;;      1126 rIdx = r0x1046 
007B   0??? 0???      02109         BANKSEL r0x101C
007D   07??           02110         ADDWF   r0x101C,W
                      02111 ;; >>> /home/sdcc-builder/build/sdcc-build/orig/sdcc/src/pic14/gen.c:7357:genJumpTab
007E   1C03           02112         BTFSS   STATUS,0
007F   2???           02113         GOTO    _00004_DS_
                      02114 ;; >>> /home/sdcc-builder/build/sdcc-build/orig/sdcc/src/pic14/gen.c:7358:genJumpTab
0080   1283 1303      02115         BANKSEL PCLATH
0082   0A8A           02116         INCF    PCLATH,F
                      02117 ;; >>> /home/sdcc-builder/build/sdcc-build/orig/sdcc/src/pic14/gen.c:7359:genJumpTab
0083                  02118 _00004_DS_:
0083   0082           02119         MOVWF   PCL
                      02120 ;; >>> /home/sdcc-builder/build/sdcc-build/orig/sdcc/src/pic14/gen.c:7368:genJumpTab
                      02121 ;; ***  popGetLabel  key=8, label offset 4
0084                  02122 _00129_DS_:
0084   2???           02123         GOTO    _00112_DS_
                      02124 ;; >>> /home/sdcc-builder/build/sdcc-build/orig/sdcc/src/pic14/gen.c:7368:genJumpTab
                      02125 ;; ***  popGetLabel  key=10, label offset 4
0085   2???           02126         GOTO    _00114_DS_
                      02127 ;; >>> /home/sdcc-builder/build/sdcc-build/orig/sdcc/src/pic14/gen.c:7368:genJumpTab
                      02128 ;; ***  popGetLabel  key=10, label offset 4
0086   2???           02129         GOTO    _00114_DS_
                      02130 ;; >>> /home/sdcc-builder/build/sdcc-build/orig/sdcc/src/pic14/gen.c:7368:genJumpTab
                      02131 ;; ***  popGetLabel  key=8, label offset 4
0087   2???           02132         GOTO    _00112_DS_
                      02133 ;;; /home/sdcc-builder/build/sdcc-build/orig/sdcc/src/pic14/gen.c:2358:resultRemat *{*
                      02134 ;;; /home/sdcc-builder/build/sdcc-build/orig/sdcc/src/pic14/gen.c:2802:genLabel *{*
                      02135 ;; ***  genLabel  2805
                      02136 ;;; /home/sdcc-builder/build/sdcc-build/orig/sdcc/src/pic14/gen.c:2358:resultRemat *{*
                      02137 ;;; /home/sdcc-builder/build/sdcc-build/orig/sdcc/src/pic14/gen.c:6951:genPointerSet *{*
                      02138 ;; ***  genPointerSet  6952
                      02139 ;;; /home/sdcc-builder/build/sdcc-build/orig/sdcc/src/pic14/gen.c:6871:genNearPointerSet *{*
                      02140 ;; ***  genNearPointerSet  6872
                      02141 ;;      708 register type nRegs=2
                      02142 ;; ***  genNearPointerSet  6886
                      02143 ;;      line = 6888 result AOP_REG=r0x1045, size=2, left -=-, size=0, right AOP_LIT=0x01, size=1
                      02144 ;;; /home/sdcc-builder/build/sdcc-build/orig/sdcc/src/pic14/gen.c:1357:mov2w_op *{*
gpasm-1.5.0 #1285 (Sep 12 2016) obj\Debug\PB.   7-19-2020  03:04:20         PAGE 42


LOC    OBJECT CODE    LINE  SOURCE TEXT
  VALUE

                      02145 ;; ***  mov2w  1395  offset=0
                      02146 ;; >>> /home/sdcc-builder/build/sdcc-build/orig/sdcc/src/pic14/gen.c:1400:mov2w
                      02147 ;;      1126 rIdx = r0x1045 
0088                  02148 _00112_DS_:
                      02149         .line   52; "PB.c"      pb_info[pb].samples[0] = PB_RELEASED_VOLTAGE;
0088   0??? 0???      02150         BANKSEL r0x101B
008A   08??           02151         MOVF    r0x101B,W
                      02152 ;; >>> /home/sdcc-builder/build/sdcc-build/orig/sdcc/src/pic14/gen.c:5851:setup_fsr
008B   1283 1303      02153         BANKSEL FSR
008D   0084           02154         MOVWF   FSR
                      02155 ;;; /home/sdcc-builder/build/sdcc-build/orig/sdcc/src/pic14/gen.c:5802:SetIrp *{*
                      02156 ;; >>> /home/sdcc-builder/build/sdcc-build/orig/sdcc/src/pic14/gen.c:5829:SetIrp
008E   1383           02157         BCF     STATUS,7
                      02158 ;; >>> /home/sdcc-builder/build/sdcc-build/orig/sdcc/src/pic14/gen.c:5832:SetIrp
008F   0??? 0???      02159         BANKSEL r0x101D
0091   18??           02160         BTFSC   r0x101D,0
                      02161 ;; >>> /home/sdcc-builder/build/sdcc-build/orig/sdcc/src/pic14/gen.c:5833:SetIrp
0092   1783           02162         BSF     STATUS,7
                      02163 ;; >>> /home/sdcc-builder/build/sdcc-build/orig/sdcc/src/pic14/gen.c:6636:emitPtrPut
0093   3001           02164         MOVLW   0x01
                      02165 ;; >>> /home/sdcc-builder/build/sdcc-build/orig/sdcc/src/pic14/gen.c:6639:emitPtrPut
0094   1283 1303      02166         BANKSEL INDF
0096   0080           02167         MOVWF   INDF
                      02168 ;; ***  genNearPointerSet  6905
                      02169 ;;; /home/sdcc-builder/build/sdcc-build/orig/sdcc/src/pic14/gen.c:2358:resultRemat *{*
                      02170 ;; ***  genPlus  707
                      02171 ;;; /home/sdcc-builder/build/sdcc-build/orig/sdcc/src/pic14/genarith.c:708:genPlus *{*
                      02172 ;;      708 register type nRegs=2
                      02173 ;;      708 register type nRegs=2
                      02174 ;;      line = 714 result AOP_REG=r0x1046, size=2, left AOP_REG=r0x1045, size=2, right AOP_LIT=0x01, siz
                            e=1
                      02175 ;;; /home/sdcc-builder/build/sdcc-build/orig/sdcc/src/pic14/genarith.c:159:genPlusIncr *{*
                      02176 ;; ***  genPlusIncr  161
                      02177 ;;      result AOP_REG, left AOP_REG, right AOP_LIT
                      02178 ;;      genPlusIncr  173
                      02179 ;;      genPlusIncr  197
                      02180 ;;      adding lit to something. size 2
                      02181 ;;; /home/sdcc-builder/build/sdcc-build/orig/sdcc/src/pic14/genarith.c:286:genAddLit *{*
                      02182 ;; ***  genAddLit  287
                      02183 ;;  left and result aren't same genAddLit  537
                      02184 ;; >>> /home/sdcc-builder/build/sdcc-build/orig/sdcc/src/pic14/genarith.c:601:genAddLit
                      02185         .line   53; "PB.c"      pb_info[pb].samples[1] = PB_RELEASED_VOLTAGE;
0097   3001           02186         MOVLW   0x01
                      02187 ;; >>> /home/sdcc-builder/build/sdcc-build/orig/sdcc/src/pic14/genarith.c:602:genAddLit
                      02188 ;;      1126 rIdx = r0x1045 
0098   0??? 0???      02189         BANKSEL r0x101B
009A   07??           02190         ADDWF   r0x101B,W
                      02191 ;;; /home/sdcc-builder/build/sdcc-build/orig/sdcc/src/pic14/genarith.c:270:emitMOVWF *{*
                      02192 ;; >>> /home/sdcc-builder/build/sdcc-build/orig/sdcc/src/pic14/genarith.c:274:emitMOVWF
                      02193 ;;      1126 rIdx = r0x1046 
009B   00??           02194         MOVWF   r0x101C
                      02195 ;; >>> /home/sdcc-builder/build/sdcc-build/orig/sdcc/src/pic14/genarith.c:677:genAddLit
                      02196 ;;      1126 rIdx = r0x1048 
gpasm-1.5.0 #1285 (Sep 12 2016) obj\Debug\PB.   7-19-2020  03:04:20         PAGE 43


LOC    OBJECT CODE    LINE  SOURCE TEXT
  VALUE

009C   01??           02197         CLRF    r0x101E
                      02198 ;; >>> /home/sdcc-builder/build/sdcc-build/orig/sdcc/src/pic14/genarith.c:678:genAddLit
                      02199 ;;      1126 rIdx = r0x1048 
009D   0D??           02200         RLF     r0x101E,F
                      02201 ;; >>> /home/sdcc-builder/build/sdcc-build/orig/sdcc/src/pic14/genarith.c:679:genAddLit
                      02202 ;;      1126 rIdx = r0x1047 
009E   08??           02203         MOVF    r0x101D,W
                      02204 ;; >>> /home/sdcc-builder/build/sdcc-build/orig/sdcc/src/pic14/genarith.c:680:genAddLit
                      02205 ;;      1126 rIdx = r0x1048 
009F   07??           02206         ADDWF   r0x101E,F
                      02207 ;; ***  addSign  1087
                      02208 ;;; /home/sdcc-builder/build/sdcc-build/orig/sdcc/src/pic14/genarith.c:1088:addSign *{*
                      02209 ;;; /home/sdcc-builder/build/sdcc-build/orig/sdcc/src/pic14/gen.c:2358:resultRemat *{*
                      02210 ;;; /home/sdcc-builder/build/sdcc-build/orig/sdcc/src/pic14/gen.c:6951:genPointerSet *{*
                      02211 ;; ***  genPointerSet  6952
                      02212 ;;; /home/sdcc-builder/build/sdcc-build/orig/sdcc/src/pic14/gen.c:6871:genNearPointerSet *{*
                      02213 ;; ***  genNearPointerSet  6872
                      02214 ;;      708 register type nRegs=2
                      02215 ;; ***  genNearPointerSet  6886
                      02216 ;;      line = 6888 result AOP_REG=r0x1046, size=2, left -=-, size=0, right AOP_LIT=0x01, size=1
                      02217 ;;; /home/sdcc-builder/build/sdcc-build/orig/sdcc/src/pic14/gen.c:1357:mov2w_op *{*
                      02218 ;; ***  mov2w  1395  offset=0
                      02219 ;; >>> /home/sdcc-builder/build/sdcc-build/orig/sdcc/src/pic14/gen.c:1400:mov2w
                      02220 ;;      1126 rIdx = r0x1046 
00A0   08??           02221         MOVF    r0x101C,W
                      02222 ;; >>> /home/sdcc-builder/build/sdcc-build/orig/sdcc/src/pic14/gen.c:5851:setup_fsr
00A1   1283 1303      02223         BANKSEL FSR
00A3   0084           02224         MOVWF   FSR
                      02225 ;;; /home/sdcc-builder/build/sdcc-build/orig/sdcc/src/pic14/gen.c:5802:SetIrp *{*
                      02226 ;; >>> /home/sdcc-builder/build/sdcc-build/orig/sdcc/src/pic14/gen.c:5829:SetIrp
00A4   1383           02227         BCF     STATUS,7
                      02228 ;; >>> /home/sdcc-builder/build/sdcc-build/orig/sdcc/src/pic14/gen.c:5832:SetIrp
00A5   0??? 0???      02229         BANKSEL r0x101E
00A7   18??           02230         BTFSC   r0x101E,0
                      02231 ;; >>> /home/sdcc-builder/build/sdcc-build/orig/sdcc/src/pic14/gen.c:5833:SetIrp
00A8   1783           02232         BSF     STATUS,7
                      02233 ;; >>> /home/sdcc-builder/build/sdcc-build/orig/sdcc/src/pic14/gen.c:6636:emitPtrPut
00A9   3001           02234         MOVLW   0x01
                      02235 ;; >>> /home/sdcc-builder/build/sdcc-build/orig/sdcc/src/pic14/gen.c:6639:emitPtrPut
00AA   1283 1303      02236         BANKSEL INDF
00AC   0080           02237         MOVWF   INDF
                      02238 ;; ***  genNearPointerSet  6905
                      02239 ;;; /home/sdcc-builder/build/sdcc-build/orig/sdcc/src/pic14/gen.c:2358:resultRemat *{*
                      02240 ;;; /home/sdcc-builder/build/sdcc-build/orig/sdcc/src/pic14/gen.c:2820:genGoto *{*
                      02241 ;; >>> /home/sdcc-builder/build/sdcc-build/orig/sdcc/src/pic14/gen.c:2822:genGoto
                      02242 ;; ***  popGetLabel  key=12, label offset 4
                      02243         .line   54; "PB.c"      break;
00AD   2???           02244         GOTO    _00116_DS_
                      02245 ;;; /home/sdcc-builder/build/sdcc-build/orig/sdcc/src/pic14/gen.c:2358:resultRemat *{*
                      02246 ;;; /home/sdcc-builder/build/sdcc-build/orig/sdcc/src/pic14/gen.c:2802:genLabel *{*
                      02247 ;; ***  genLabel  2805
                      02248 ;;; /home/sdcc-builder/build/sdcc-build/orig/sdcc/src/pic14/gen.c:2358:resultRemat *{*
                      02249 ;;; /home/sdcc-builder/build/sdcc-build/orig/sdcc/src/pic14/gen.c:6951:genPointerSet *{*
gpasm-1.5.0 #1285 (Sep 12 2016) obj\Debug\PB.   7-19-2020  03:04:20         PAGE 44


LOC    OBJECT CODE    LINE  SOURCE TEXT
  VALUE

                      02250 ;; ***  genPointerSet  6952
                      02251 ;;; /home/sdcc-builder/build/sdcc-build/orig/sdcc/src/pic14/gen.c:6871:genNearPointerSet *{*
                      02252 ;; ***  genNearPointerSet  6872
                      02253 ;;      708 register type nRegs=2
                      02254 ;; ***  genNearPointerSet  6886
                      02255 ;;      line = 6888 result AOP_REG=r0x1045, size=2, left -=-, size=0, right AOP_LIT=0x00, size=1
                      02256 ;;; /home/sdcc-builder/build/sdcc-build/orig/sdcc/src/pic14/gen.c:1357:mov2w_op *{*
                      02257 ;; ***  mov2w  1395  offset=0
                      02258 ;; >>> /home/sdcc-builder/build/sdcc-build/orig/sdcc/src/pic14/gen.c:1400:mov2w
                      02259 ;;      1126 rIdx = r0x1045 
00AE                  02260 _00114_DS_:
                      02261         .line   57; "PB.c"      pb_info[pb].samples[0] = PB_PRESSED_VOLTAGE;
00AE   0??? 0???      02262         BANKSEL r0x101B
00B0   08??           02263         MOVF    r0x101B,W
                      02264 ;; >>> /home/sdcc-builder/build/sdcc-build/orig/sdcc/src/pic14/gen.c:5851:setup_fsr
00B1   1283 1303      02265         BANKSEL FSR
00B3   0084           02266         MOVWF   FSR
                      02267 ;;; /home/sdcc-builder/build/sdcc-build/orig/sdcc/src/pic14/gen.c:5802:SetIrp *{*
                      02268 ;; >>> /home/sdcc-builder/build/sdcc-build/orig/sdcc/src/pic14/gen.c:5829:SetIrp
00B4   1383           02269         BCF     STATUS,7
                      02270 ;; >>> /home/sdcc-builder/build/sdcc-build/orig/sdcc/src/pic14/gen.c:5832:SetIrp
00B5   0??? 0???      02271         BANKSEL r0x101D
00B7   18??           02272         BTFSC   r0x101D,0
                      02273 ;; >>> /home/sdcc-builder/build/sdcc-build/orig/sdcc/src/pic14/gen.c:5833:SetIrp
00B8   1783           02274         BSF     STATUS,7
                      02275 ;; >>> /home/sdcc-builder/build/sdcc-build/orig/sdcc/src/pic14/gen.c:6636:emitPtrPut
00B9   3000           02276         MOVLW   0x00
                      02277 ;; >>> /home/sdcc-builder/build/sdcc-build/orig/sdcc/src/pic14/gen.c:6639:emitPtrPut
00BA   1283 1303      02278         BANKSEL INDF
00BC   0080           02279         MOVWF   INDF
                      02280 ;; ***  genNearPointerSet  6905
                      02281 ;;; /home/sdcc-builder/build/sdcc-build/orig/sdcc/src/pic14/gen.c:2358:resultRemat *{*
                      02282 ;; ***  genPlus  707
                      02283 ;;; /home/sdcc-builder/build/sdcc-build/orig/sdcc/src/pic14/genarith.c:708:genPlus *{*
                      02284 ;;      708 register type nRegs=2
                      02285 ;;      708 register type nRegs=2
                      02286 ;;      line = 714 result AOP_REG=r0x1045, size=2, left AOP_REG=r0x1045, size=2, right AOP_LIT=0x01, siz
                            e=1
                      02287 ;;; /home/sdcc-builder/build/sdcc-build/orig/sdcc/src/pic14/genarith.c:159:genPlusIncr *{*
                      02288 ;; ***  genPlusIncr  161
                      02289 ;;      result AOP_REG, left AOP_REG, right AOP_LIT
                      02290 ;;      genPlusIncr  173
                      02291 ;; >>> /home/sdcc-builder/build/sdcc-build/orig/sdcc/src/pic14/genarith.c:185:genPlusIncr
                      02292 ;;      1126 rIdx = r0x1045 
                      02293         .line   58; "PB.c"      pb_info[pb].samples[1] = PB_PRESSED_VOLTAGE;
00BD   0??? 0???      02294         BANKSEL r0x101B
00BF   0A??           02295         INCF    r0x101B,F
                      02296 ;; >>> /home/sdcc-builder/build/sdcc-build/orig/sdcc/src/pic14/genarith.c:189:genPlusIncr
00C0   1903           02297         BTFSC   STATUS,2
                      02298 ;; >>> /home/sdcc-builder/build/sdcc-build/orig/sdcc/src/pic14/genarith.c:190:genPlusIncr
                      02299 ;;      1126 rIdx = r0x1047 
00C1   0A??           02300         INCF    r0x101D,F
                      02301 ;;; /home/sdcc-builder/build/sdcc-build/orig/sdcc/src/pic14/gen.c:2358:resultRemat *{*
gpasm-1.5.0 #1285 (Sep 12 2016) obj\Debug\PB.   7-19-2020  03:04:20         PAGE 45


LOC    OBJECT CODE    LINE  SOURCE TEXT
  VALUE

                      02302 ;;; /home/sdcc-builder/build/sdcc-build/orig/sdcc/src/pic14/gen.c:6951:genPointerSet *{*
                      02303 ;; ***  genPointerSet  6952
                      02304 ;;; /home/sdcc-builder/build/sdcc-build/orig/sdcc/src/pic14/gen.c:6871:genNearPointerSet *{*
                      02305 ;; ***  genNearPointerSet  6872
                      02306 ;;      708 register type nRegs=2
                      02307 ;; ***  genNearPointerSet  6886
                      02308 ;;      line = 6888 result AOP_REG=r0x1045, size=2, left -=-, size=0, right AOP_LIT=0x00, size=1
                      02309 ;;; /home/sdcc-builder/build/sdcc-build/orig/sdcc/src/pic14/gen.c:1357:mov2w_op *{*
                      02310 ;; ***  mov2w  1395  offset=0
                      02311 ;; >>> /home/sdcc-builder/build/sdcc-build/orig/sdcc/src/pic14/gen.c:1400:mov2w
                      02312 ;;      1126 rIdx = r0x1045 
00C2   08??           02313         MOVF    r0x101B,W
                      02314 ;; >>> /home/sdcc-builder/build/sdcc-build/orig/sdcc/src/pic14/gen.c:5851:setup_fsr
00C3   1283 1303      02315         BANKSEL FSR
00C5   0084           02316         MOVWF   FSR
                      02317 ;;; /home/sdcc-builder/build/sdcc-build/orig/sdcc/src/pic14/gen.c:5802:SetIrp *{*
                      02318 ;; >>> /home/sdcc-builder/build/sdcc-build/orig/sdcc/src/pic14/gen.c:5829:SetIrp
00C6   1383           02319         BCF     STATUS,7
                      02320 ;; >>> /home/sdcc-builder/build/sdcc-build/orig/sdcc/src/pic14/gen.c:5832:SetIrp
00C7   0??? 0???      02321         BANKSEL r0x101D
00C9   18??           02322         BTFSC   r0x101D,0
                      02323 ;; >>> /home/sdcc-builder/build/sdcc-build/orig/sdcc/src/pic14/gen.c:5833:SetIrp
00CA   1783           02324         BSF     STATUS,7
                      02325 ;; >>> /home/sdcc-builder/build/sdcc-build/orig/sdcc/src/pic14/gen.c:6636:emitPtrPut
00CB   3000           02326         MOVLW   0x00
                      02327 ;; >>> /home/sdcc-builder/build/sdcc-build/orig/sdcc/src/pic14/gen.c:6639:emitPtrPut
00CC   1283 1303      02328         BANKSEL INDF
00CE   0080           02329         MOVWF   INDF
                      02330 ;; ***  genNearPointerSet  6905
                      02331 ;;; /home/sdcc-builder/build/sdcc-build/orig/sdcc/src/pic14/gen.c:2358:resultRemat *{*
                      02332 ;;; /home/sdcc-builder/build/sdcc-build/orig/sdcc/src/pic14/gen.c:2802:genLabel *{*
                      02333 ;; ***  genLabel  2805
                      02334 ;;; /home/sdcc-builder/build/sdcc-build/orig/sdcc/src/pic14/gen.c:2358:resultRemat *{*
                      02335 ;;; /home/sdcc-builder/build/sdcc-build/orig/sdcc/src/pic14/gen.c:2570:genEndFunction *{*
                      02336 ;; ***  genEndFunction  2572
00CF                  02337 _00116_DS_:
                      02338         .line   61; "PB.c"      }
00CF   0008           02339         RETURN  
                      02340 ; exit point of _PB_Init
                      02341 ;;; /home/sdcc-builder/build/sdcc-build/orig/sdcc/src/pic14/gen.c:7710:genpic14Code *{*
                      02342 
                      02343 
                      02344 ;       code size estimation:
                      02345 ;         431+  132 =   563 instructions ( 1390 byte)
                      02346 
                      02347         end
gpasm-1.5.0 #1285 (Sep 12 2016) obj\Debug\PB.   7-19-2020  03:04:20         PAGE 46


SYMBOL TABLE
  LABEL                              TYPE        VALUE         VALUE          VALUE
                                                 (hex)         (dec)          (text)

ACKDT                             CONSTANT      00000005              5
ACKEN                             CONSTANT      00000004              4
ACKSTAT                           CONSTANT      00000006              6
ADCON0                            CONSTANT      0000001F             31
ADCON1                            CONSTANT      0000009F            159
ADCS0                             CONSTANT      00000006              6
ADCS1                             CONSTANT      00000007              7
ADCS2                             CONSTANT      00000006              6
ADDEN                             CONSTANT      00000003              3
ADFM                              CONSTANT      00000007              7
ADIE                              CONSTANT      00000006              6
ADIF                              CONSTANT      00000006              6
ADON                              CONSTANT      00000000              0
ADRESH                            CONSTANT      0000001E             30
ADRESL                            CONSTANT      0000009E            158
BCLIE                             CONSTANT      00000003              3
BCLIF                             CONSTANT      00000003              3
BF                                CONSTANT      00000000              0
BRGH                              CONSTANT      00000002              2
C                                 CONSTANT      00000000              0
C1INV                             CONSTANT      00000004              4
C1OUT                             CONSTANT      00000006              6
C2INV                             CONSTANT      00000005              5
C2OUT                             CONSTANT      00000007              7
CCP1CON                           CONSTANT      00000017             23
CCP1IE                            CONSTANT      00000002              2
CCP1IF                            CONSTANT      00000002              2
CCP1M0                            CONSTANT      00000000              0
CCP1M1                            CONSTANT      00000001              1
CCP1M2                            CONSTANT      00000002              2
CCP1M3                            CONSTANT      00000003              3
CCP1X                             CONSTANT      00000005              5
CCP1Y                             CONSTANT      00000004              4
CCP2CON                           CONSTANT      0000001D             29
CCP2IE                            CONSTANT      00000000              0
CCP2IF                            CONSTANT      00000000              0
CCP2M0                            CONSTANT      00000000              0
CCP2M1                            CONSTANT      00000001              1
CCP2M2                            CONSTANT      00000002              2
CCP2M3                            CONSTANT      00000003              3
CCP2X                             CONSTANT      00000005              5
CCP2Y                             CONSTANT      00000004              4
CCPR1                             CONSTANT      00000015             21
CCPR1H                            CONSTANT      00000016             22
CCPR1L                            CONSTANT      00000015             21
CCPR2                             CONSTANT      0000001B             27
CCPR2H                            CONSTANT      0000001C             28
CCPR2L                            CONSTANT      0000001B             27
CHS0                              CONSTANT      00000003              3
CHS1                              CONSTANT      00000004              4
CHS2                              CONSTANT      00000005              5
CIS                               CONSTANT      00000003              3
gpasm-1.5.0 #1285 (Sep 12 2016) obj\Debug\PB.   7-19-2020  03:04:20         PAGE 47


SYMBOL TABLE
  LABEL                              TYPE        VALUE         VALUE          VALUE
                                                 (hex)         (dec)          (text)

CKE                               CONSTANT      00000006              6
CKP                               CONSTANT      00000004              4
CM0                               CONSTANT      00000000              0
CM1                               CONSTANT      00000001              1
CM2                               CONSTANT      00000002              2
CMCON                             CONSTANT      0000009C            156
CMIE                              CONSTANT      00000006              6
CMIF                              CONSTANT      00000006              6
CREN                              CONSTANT      00000004              4
CSRC                              CONSTANT      00000007              7
CVR0                              CONSTANT      00000000              0
CVR1                              CONSTANT      00000001              1
CVR2                              CONSTANT      00000002              2
CVR3                              CONSTANT      00000003              3
CVRCON                            CONSTANT      0000009D            157
CVREN                             CONSTANT      00000007              7
CVROE                             CONSTANT      00000006              6
CVRR                              CONSTANT      00000005              5
D                                 CONSTANT      00000005              5
DATA_ADDRESS                      CONSTANT      00000005              5
DC                                CONSTANT      00000001              1
D_A                               CONSTANT      00000005              5
D_NOT_A                           CONSTANT      00000005              5
EEADR                             CONSTANT      0000010D            269
EEADRH                            CONSTANT      0000010F            271
EECON1                            CONSTANT      0000018C            396
EECON2                            CONSTANT      0000018D            397
EEDATA                            CONSTANT      0000010C            268
EEDATH                            CONSTANT      0000010E            270
EEIE                              CONSTANT      00000004              4
EEIF                              CONSTANT      00000004              4
EEPGD                             CONSTANT      00000007              7
F                                 CONSTANT      00000001              1
FERR                              CONSTANT      00000002              2
FSR                               CONSTANT      00000004              4
GCEN                              CONSTANT      00000007              7
GIE                               CONSTANT      00000007              7
GO                                CONSTANT      00000002              2
GO_DONE                           CONSTANT      00000002              2
GO_NOT_DONE                       CONSTANT      00000002              2
I2C_DATA                          CONSTANT      00000005              5
I2C_READ                          CONSTANT      00000002              2
I2C_START                         CONSTANT      00000003              3
I2C_STOP                          CONSTANT      00000004              4
IBF                               CONSTANT      00000007              7
IBOV                              CONSTANT      00000005              5
INDF                              CONSTANT      00000000              0
INTCON                            CONSTANT      0000000B             11
INTE                              CONSTANT      00000004              4
INTEDG                            CONSTANT      00000006              6
INTF                              CONSTANT      00000001              1
IRP                               CONSTANT      00000007              7
gpasm-1.5.0 #1285 (Sep 12 2016) obj\Debug\PB.   7-19-2020  03:04:20         PAGE 48


SYMBOL TABLE
  LABEL                              TYPE        VALUE         VALUE          VALUE
                                                 (hex)         (dec)          (text)

NOT_A                             CONSTANT      00000005              5
NOT_ADDRESS                       CONSTANT      00000005              5
NOT_BO                            CONSTANT      00000000              0
NOT_BOR                           CONSTANT      00000000              0
NOT_DONE                          CONSTANT      00000002              2
NOT_PD                            CONSTANT      00000003              3
NOT_POR                           CONSTANT      00000001              1
NOT_RBPU                          CONSTANT      00000007              7
NOT_RC8                           CONSTANT      00000006              6
NOT_T1SYNC                        CONSTANT      00000002              2
NOT_TO                            CONSTANT      00000004              4
NOT_TX8                           CONSTANT      00000006              6
NOT_W                             CONSTANT      00000002              2
NOT_WRITE                         CONSTANT      00000002              2
OBF                               CONSTANT      00000006              6
OERR                              CONSTANT      00000001              1
OPTION_REG                        CONSTANT      00000081            129
P                                 CONSTANT      00000004              4
PCFG0                             CONSTANT      00000000              0
PCFG1                             CONSTANT      00000001              1
PCFG2                             CONSTANT      00000002              2
PCFG3                             CONSTANT      00000003              3
PCL                               CONSTANT      00000002              2
PCLATH                            CONSTANT      0000000A             10
PCON                              CONSTANT      0000008E            142
PEIE                              CONSTANT      00000006              6
PEN                               CONSTANT      00000002              2
PIE1                              CONSTANT      0000008C            140
PIE2                              CONSTANT      0000008D            141
PIR1                              CONSTANT      0000000C             12
PIR2                              CONSTANT      0000000D             13
PORTA                             CONSTANT      00000005              5
PORTB                             CONSTANT      00000006              6
PORTC                             CONSTANT      00000007              7
PORTD                             CONSTANT      00000008              8
PORTE                             CONSTANT      00000009              9
PR2                               CONSTANT      00000092            146
PS0                               CONSTANT      00000000              0
PS1                               CONSTANT      00000001              1
PS2                               CONSTANT      00000002              2
PSA                               CONSTANT      00000003              3
PSAVE                             EXTERNAL      00000000              0
PSPIE                             CONSTANT      00000007              7
PSPIF                             CONSTANT      00000007              7
PSPMODE                           CONSTANT      00000004              4
R                                 CONSTANT      00000002              2
RA0                               CONSTANT      00000000              0
RA1                               CONSTANT      00000001              1
RA2                               CONSTANT      00000002              2
RA3                               CONSTANT      00000003              3
RA4                               CONSTANT      00000004              4
RA5                               CONSTANT      00000005              5
gpasm-1.5.0 #1285 (Sep 12 2016) obj\Debug\PB.   7-19-2020  03:04:20         PAGE 49


SYMBOL TABLE
  LABEL                              TYPE        VALUE         VALUE          VALUE
                                                 (hex)         (dec)          (text)

RB0                               CONSTANT      00000000              0
RB1                               CONSTANT      00000001              1
RB2                               CONSTANT      00000002              2
RB3                               CONSTANT      00000003              3
RB4                               CONSTANT      00000004              4
RB5                               CONSTANT      00000005              5
RB6                               CONSTANT      00000006              6
RB7                               CONSTANT      00000007              7
RBIE                              CONSTANT      00000003              3
RBIF                              CONSTANT      00000000              0
RC0                               CONSTANT      00000000              0
RC1                               CONSTANT      00000001              1
RC2                               CONSTANT      00000002              2
RC3                               CONSTANT      00000003              3
RC4                               CONSTANT      00000004              4
RC5                               CONSTANT      00000005              5
RC6                               CONSTANT      00000006              6
RC7                               CONSTANT      00000007              7
RC8_9                             CONSTANT      00000006              6
RC9                               CONSTANT      00000006              6
RCD8                              CONSTANT      00000000              0
RCEN                              CONSTANT      00000003              3
RCIE                              CONSTANT      00000005              5
RCIF                              CONSTANT      00000005              5
RCREG                             CONSTANT      0000001A             26
RCSTA                             CONSTANT      00000018             24
RD                                CONSTANT      00000000              0
RD0                               CONSTANT      00000000              0
RD1                               CONSTANT      00000001              1
RD2                               CONSTANT      00000002              2
RD3                               CONSTANT      00000003              3
RD4                               CONSTANT      00000004              4
RD5                               CONSTANT      00000005              5
RD6                               CONSTANT      00000006              6
RD7                               CONSTANT      00000007              7
RE0                               CONSTANT      00000000              0
RE1                               CONSTANT      00000001              1
RE2                               CONSTANT      00000002              2
READ_WRITE                        CONSTANT      00000002              2
RP0                               CONSTANT      00000005              5
RP1                               CONSTANT      00000006              6
RSEN                              CONSTANT      00000001              1
RX9                               CONSTANT      00000006              6
RX9D                              CONSTANT      00000000              0
R_NOT_W                           CONSTANT      00000002              2
R_W                               CONSTANT      00000002              2
S                                 CONSTANT      00000003              3
SEN                               CONSTANT      00000000              0
SMP                               CONSTANT      00000007              7
SPBRG                             CONSTANT      00000099            153
SPEN                              CONSTANT      00000007              7
SREN                              CONSTANT      00000005              5
gpasm-1.5.0 #1285 (Sep 12 2016) obj\Debug\PB.   7-19-2020  03:04:20         PAGE 50


SYMBOL TABLE
  LABEL                              TYPE        VALUE         VALUE          VALUE
                                                 (hex)         (dec)          (text)

SSAVE                             EXTERNAL      00000000              0
SSPADD                            CONSTANT      00000093            147
SSPBUF                            CONSTANT      00000013             19
SSPCON                            CONSTANT      00000014             20
SSPCON2                           CONSTANT      00000091            145
SSPEN                             CONSTANT      00000005              5
SSPIE                             CONSTANT      00000003              3
SSPIF                             CONSTANT      00000003              3
SSPM0                             CONSTANT      00000000              0
SSPM1                             CONSTANT      00000001              1
SSPM2                             CONSTANT      00000002              2
SSPM3                             CONSTANT      00000003              3
SSPOV                             CONSTANT      00000006              6
SSPSTAT                           CONSTANT      00000094            148
STATUS                            CONSTANT      00000003              3
STK00                             EXTERNAL      00000000              0
STK01                             EXTERNAL      00000000              0
STK02                             EXTERNAL      00000000              0
STK03                             EXTERNAL      00000000              0
STK04                             EXTERNAL      00000000              0
STK05                             EXTERNAL      00000000              0
STK06                             EXTERNAL      00000000              0
STK07                             EXTERNAL      00000000              0
STK08                             EXTERNAL      00000000              0
STK09                             EXTERNAL      00000000              0
STK10                             EXTERNAL      00000000              0
STK11                             EXTERNAL      00000000              0
STK12                             EXTERNAL      00000000              0
SYNC                              CONSTANT      00000004              4
T0CS                              CONSTANT      00000005              5
T0IE                              CONSTANT      00000005              5
T0IF                              CONSTANT      00000002              2
T0SE                              CONSTANT      00000004              4
T1CKPS0                           CONSTANT      00000004              4
T1CKPS1                           CONSTANT      00000005              5
T1CON                             CONSTANT      00000010             16
T1INSYNC                          CONSTANT      00000002              2
T1OSCEN                           CONSTANT      00000003              3
T1SYNC                            CONSTANT      00000002              2
T2CKPS0                           CONSTANT      00000000              0
T2CKPS1                           CONSTANT      00000001              1
T2CON                             CONSTANT      00000012             18
TMR0                              CONSTANT      00000001              1
TMR0IE                            CONSTANT      00000005              5
TMR0IF                            CONSTANT      00000002              2
TMR1                              CONSTANT      0000000E             14
TMR1CS                            CONSTANT      00000001              1
TMR1H                             CONSTANT      0000000F             15
TMR1IE                            CONSTANT      00000000              0
TMR1IF                            CONSTANT      00000000              0
TMR1L                             CONSTANT      0000000E             14
TMR1ON                            CONSTANT      00000000              0
gpasm-1.5.0 #1285 (Sep 12 2016) obj\Debug\PB.   7-19-2020  03:04:20         PAGE 51


SYMBOL TABLE
  LABEL                              TYPE        VALUE         VALUE          VALUE
                                                 (hex)         (dec)          (text)

TMR2                              CONSTANT      00000011             17
TMR2IE                            CONSTANT      00000001              1
TMR2IF                            CONSTANT      00000001              1
TMR2ON                            CONSTANT      00000002              2
TOUTPS0                           CONSTANT      00000003              3
TOUTPS1                           CONSTANT      00000004              4
TOUTPS2                           CONSTANT      00000005              5
TOUTPS3                           CONSTANT      00000006              6
TRISA                             CONSTANT      00000085            133
TRISA0                            CONSTANT      00000000              0
TRISA1                            CONSTANT      00000001              1
TRISA2                            CONSTANT      00000002              2
TRISA3                            CONSTANT      00000003              3
TRISA4                            CONSTANT      00000004              4
TRISA5                            CONSTANT      00000005              5
TRISB                             CONSTANT      00000086            134
TRISB0                            CONSTANT      00000000              0
TRISB1                            CONSTANT      00000001              1
TRISB2                            CONSTANT      00000002              2
TRISB3                            CONSTANT      00000003              3
TRISB4                            CONSTANT      00000004              4
TRISB5                            CONSTANT      00000005              5
TRISB6                            CONSTANT      00000006              6
TRISB7                            CONSTANT      00000007              7
TRISC                             CONSTANT      00000087            135
TRISC0                            CONSTANT      00000000              0
TRISC1                            CONSTANT      00000001              1
TRISC2                            CONSTANT      00000002              2
TRISC3                            CONSTANT      00000003              3
TRISC4                            CONSTANT      00000004              4
TRISC5                            CONSTANT      00000005              5
TRISC6                            CONSTANT      00000006              6
TRISC7                            CONSTANT      00000007              7
TRISD                             CONSTANT      00000088            136
TRISD0                            CONSTANT      00000000              0
TRISD1                            CONSTANT      00000001              1
TRISD2                            CONSTANT      00000002              2
TRISD3                            CONSTANT      00000003              3
TRISD4                            CONSTANT      00000004              4
TRISD5                            CONSTANT      00000005              5
TRISD6                            CONSTANT      00000006              6
TRISD7                            CONSTANT      00000007              7
TRISE                             CONSTANT      00000089            137
TRISE0                            CONSTANT      00000000              0
TRISE1                            CONSTANT      00000001              1
TRISE2                            CONSTANT      00000002              2
TRMT                              CONSTANT      00000001              1
TX8_9                             CONSTANT      00000006              6
TX9                               CONSTANT      00000006              6
TX9D                              CONSTANT      00000000              0
TXD8                              CONSTANT      00000000              0
TXEN                              CONSTANT      00000005              5
gpasm-1.5.0 #1285 (Sep 12 2016) obj\Debug\PB.   7-19-2020  03:04:20         PAGE 52


SYMBOL TABLE
  LABEL                              TYPE        VALUE         VALUE          VALUE
                                                 (hex)         (dec)          (text)

TXIE                              CONSTANT      00000004              4
TXIF                              CONSTANT      00000004              4
TXREG                             CONSTANT      00000019             25
TXSTA                             CONSTANT      00000098            152
UA                                CONSTANT      00000001              1
W                                 CONSTANT      00000000              0
WCOL                              CONSTANT      00000007              7
WR                                CONSTANT      00000001              1
WREN                              CONSTANT      00000002              2
WRERR                             CONSTANT      00000003              3
WSAVE                             EXTERNAL      00000000              0
Z                                 CONSTANT      00000002              2
_00001_DS_                        ADDRESS       0000004D             77
_00002_DS_                        ADDRESS       000000E7            231
_00003_DS_                        ADDRESS       00000016             22
_00004_DS_                        ADDRESS       00000083            131
_00105_DS_                        ADDRESS       0000001B             27
_00106_DS_                        ADDRESS       00000026             38
_00107_DS_                        ADDRESS       00000031             49
_00108_DS_                        ADDRESS       0000003C             60
_00110_DS_                        ADDRESS       00000046             70
_00112_DS_                        ADDRESS       00000088            136
_00114_DS_                        ADDRESS       000000AE            174
_00116_DS_                        ADDRESS       000000CF            207
_00127_DS_                        ADDRESS       00000017             23
_00129_DS_                        ADDRESS       00000084            132
_00134_DS_                        ADDRESS       00000052             82
_00135_DS_                        ADDRESS       0000006B            107
_00136_DS_                        ADDRESS       00000084            132
_00137_DS_                        ADDRESS       0000009D            157
_00139_DS_                        ADDRESS       000000B5            181
_00140_DS_                        ADDRESS       000000EC            236
_00144_DS_                        ADDRESS       00000127            295
_00147_DS_                        ADDRESS       00000150            336
_00151_DS_                        ADDRESS       0000018B            395
_00157_DS_                        ADDRESS       00000007              7
_00158_DS_                        ADDRESS       000001AF            431
_00199_DS_                        ADDRESS       0000004E             78
_00201_DS_                        ADDRESS       000000E8            232
_BODEN_OFF                        CONSTANT      00003FBF          16319
_BODEN_ON                         CONSTANT      00003FFF          16383
_BOREN_OFF                        CONSTANT      00003FBF          16319
_BOREN_ON                         CONSTANT      00003FFF          16383
_CONFIG                           CONSTANT      00002007           8199
_CPD_OFF                          CONSTANT      00003FFF          16383
_CPD_ON                           CONSTANT      00003EFF          16127
_CP_ALL                           CONSTANT      00001FFF           8191
_CP_OFF                           CONSTANT      00003FFF          16383
_CP_ON                            CONSTANT      00001FFF           8191
_DEBUG_OFF                        CONSTANT      00003FFF          16383
_DEBUG_ON                         CONSTANT      000037FF          14335
_DEVID1                           CONSTANT      00002006           8198
gpasm-1.5.0 #1285 (Sep 12 2016) obj\Debug\PB.   7-19-2020  03:04:20         PAGE 53


SYMBOL TABLE
  LABEL                              TYPE        VALUE         VALUE          VALUE
                                                 (hex)         (dec)          (text)

_FOSC_EXTRC                       CONSTANT      00003FFF          16383
_FOSC_HS                          CONSTANT      00003FFE          16382
_FOSC_LP                          CONSTANT      00003FFC          16380
_FOSC_XT                          CONSTANT      00003FFD          16381
_GPIO_GetPortPinState             EXTERNAL      00000000              0
_GPIO_InitPortPin                 EXTERNAL      00000000              0
_HS_OSC                           CONSTANT      00003FFE          16382
_IDLOC0                           CONSTANT      00002000           8192
_IDLOC1                           CONSTANT      00002001           8193
_IDLOC2                           CONSTANT      00002002           8194
_IDLOC3                           CONSTANT      00002003           8195
_LP_OSC                           CONSTANT      00003FFC          16380
_LVP_OFF                          CONSTANT      00003F7F          16255
_LVP_ON                           CONSTANT      00003FFF          16383
_PB_GetState                      GLOBAL        00000000              0
_PB_Init                          GLOBAL        00000000              0
_PB_Update                        GLOBAL        00000000              0
_PWRTE_OFF                        CONSTANT      00003FFF          16383
_PWRTE_ON                         CONSTANT      00003FF7          16375
_RC_OSC                           CONSTANT      00003FFF          16383
_S_PB__PB_GetState_0009           ADDRESS       00000009              9
_S_PB__PB_Init_0023               ADDRESS       00000023             35
_S_PB__PB_Init_002E               ADDRESS       0000002E             46
_S_PB__PB_Init_0039               ADDRESS       00000039             57
_S_PB__PB_Init_0044               ADDRESS       00000044             68
_S_PB__PB_Init_004E               ADDRESS       0000004E             78
_S_PB__PB_Update_0058             ADDRESS       00000058             88
_S_PB__PB_Update_0071             ADDRESS       00000071            113
_S_PB__PB_Update_008A             ADDRESS       0000008A            138
_S_PB__PB_Update_00A3             ADDRESS       000000A3            163
_WDTE_OFF                         CONSTANT      00003FFB          16379
_WDTE_ON                          CONSTANT      00003FFF          16383
_WDT_OFF                          CONSTANT      00003FFB          16379
_WDT_ON                           CONSTANT      00003FFF          16383
_WRT_1FOURTH                      CONSTANT      00003BFF          15359
_WRT_256                          CONSTANT      00003DFF          15871
_WRT_HALF                         CONSTANT      000039FF          14847
_WRT_OFF                          CONSTANT      00003FFF          16383
_XT_OSC                           CONSTANT      00003FFD          16381
__14_BIT                          CONSTANT      00000001              1
__16F877A                         CONSTANT      00000001              1
__ACTIVE_BANK_ADDR                VARIABLE      FFFFFFFF             -1
__ACTIVE_PAGE_ADDR                VARIABLE      FFFFFFFF             -1
__ASSUMED_BANK_ADDR               VARIABLE      FFFFFFFF             -1
__BANK_0                          CONSTANT      00000000              0
__BANK_1                          CONSTANT      00000080            128
__BANK_2                          CONSTANT      00000100            256
__BANK_3                          CONSTANT      00000180            384
__BANK_BITS                       CONSTANT      00000180            384
__BANK_FIRST                      CONSTANT      00000000              0
__BANK_INV                        CONSTANT      FFFFFFFF             -1
__BANK_LAST                       CONSTANT      00000180            384
gpasm-1.5.0 #1285 (Sep 12 2016) obj\Debug\PB.   7-19-2020  03:04:20         PAGE 54


SYMBOL TABLE
  LABEL                              TYPE        VALUE         VALUE          VALUE
                                                 (hex)         (dec)          (text)

__BANK_MASK                       CONSTANT      0000007F            127
__BANK_SHIFT                      CONSTANT      00000007              7
__BANK_SIZE                       CONSTANT      00000080            128
__CODE_END                        CONSTANT      00001FFF           8191
__CODE_START                      CONSTANT      00000000              0
__COMMON_RAM_END                  CONSTANT      0000007F            127
__COMMON_RAM_START                CONSTANT      00000070            112
__CONFIG_END                      CONSTANT      00002007           8199
__CONFIG_START                    CONSTANT      00002007           8199
__EEPROM_END                      CONSTANT      000021FF           8703
__EEPROM_START                    CONSTANT      00002100           8448
__GPUTILS_SVN_VERSION             CONSTANT      00000505           1285
__GPUTILS_VERSION_MAJOR           CONSTANT      00000001              1
__GPUTILS_VERSION_MICRO           CONSTANT      00000000              0
__GPUTILS_VERSION_MINOR           CONSTANT      00000005              5
__IDLOCS_END                      CONSTANT      00002003           8195
__IDLOCS_START                    CONSTANT      00002000           8192
__NUM_BANKS                       CONSTANT      00000004              4
__NUM_PAGES                       CONSTANT      00000004              4
__PAGE_0                          CONSTANT      00000000              0
__PAGE_1                          CONSTANT      00000800           2048
__PAGE_2                          CONSTANT      00001000           4096
__PAGE_3                          CONSTANT      00001800           6144
__PAGE_BITS                       CONSTANT      00001800           6144
__PAGE_FIRST                      CONSTANT      00000000              0
__PAGE_INV                        CONSTANT      FFFFFFFF             -1
__PAGE_LAST                       CONSTANT      00001800           6144
__PAGE_MASK                       CONSTANT      000007FF           2047
__PAGE_SHIFT                      CONSTANT      0000000B             11
__PAGE_SIZE                       CONSTANT      00000800           2048
__VECTOR_INT                      CONSTANT      00000004              4
__VECTOR_RESET                    CONSTANT      00000000              0
__WHILE_LOOP_COUNT_MAX            CONSTANT      000000FF            255
__muluchar                        EXTERNAL      00000000              0
_pb_info                          STATIC        00000000              0
r0x100C                           STATIC        00000011             17
r0x100D                           STATIC        00000012             18
r0x100F                           STATIC        00000005              5
r0x101A                           STATIC        00000010             16
r0x101B                           STATIC        00000000              0
r0x101C                           STATIC        00000001              1
r0x101D                           STATIC        00000002              2
r0x101E                           STATIC        00000003              3
r0x101F                           STATIC        00000004              4
r0x1010                           STATIC        00000006              6
r0x1011                           STATIC        00000007              7
r0x1012                           STATIC        00000008              8
r0x1013                           STATIC        00000009              9
r0x1014                           STATIC        0000000A             10
r0x1015                           STATIC        0000000B             11
r0x1016                           STATIC        0000000C             12
r0x1017                           STATIC        0000000D             13
gpasm-1.5.0 #1285 (Sep 12 2016) obj\Debug\PB.   7-19-2020  03:04:20         PAGE 55


SYMBOL TABLE
  LABEL                              TYPE        VALUE         VALUE          VALUE
                                                 (hex)         (dec)          (text)

r0x1018                           STATIC        0000000E             14
r0x1019                           STATIC        0000000F             15

Errors   :     0
Warnings :     0 reported,     0 suppressed
Messages :     0 reported,     0 suppressed

